jz 0x345e
000033F9  2E676E            cs a32 outsb
000033FC  752E              jnz 0x342c
000033FE  627569            bound si,[di+0x69]
00003401  6C                insb
00000000  7F45              jg 0x47
00000002  4C                dec sp
00000003  46                inc si
00000004  0201              add al,[bx+di]
00000006  0100              add [bx+si],ax
00000008  0000              add [bx+si],al
0000000A  0000              add [bx+si],al
0000000C  0000              add [bx+si],al
0000000E  0000              add [bx+si],aljz 0x345e
000033F9  2E676E            cs a32 outsb
000033FC  752E              jnz 0x342c
000033FE  627569            bound si,[di+0x69]
00003401  6C                insb

00000010  0300              add ax,[bx+si]
00000012  3E0001            add [ds:bx+di],al
00000015  0000              add [bx+si],al
00000017  004010            add [bx+si+0x10],al
0000001A  0000              add [bx+si],al
0000001C  0000              add [bx+si],al
0000001E  0000              add [bx+si],al
00000020  40                inc ax
00000021  0000              add [bx+si],al
00000023  0000              add [bx+si],al
00000025  0000              add [bx+si],al
00000027  00D8              add al,bl
00000029  3400              xor al,0x0
0000002B  0000              add [bx+si],al
0000002D  0000              add [bx+si],al
0000002F  0000              add [bx+si],al
00000031  0000              add [bx+si],al
00000033  004000            add [bx+si+0x0],al
00000036  3800              cmp [bx+si],al
00000038  0D0040            or ax,0x4000
0000003B  001E001D          add [0x1d00],bl
0000003F  00060000          add [0x0],al
00000043  0004              add [si],al
00000045  0000              add [bx+si],al
00000047  004000            add [bx+si+0x0],al
0000004A  0000              add [bx+si],al
0000004C  0000              add [bx+si],al
0000004E  0000              add [bx+si],al
00000050  40                inc ax
00000051  0000              add [bx+si],al
00000053  0000              add [bx+si],al
00000055  0000              add [bx+si],al
00000057  004000            add [bx+si+0x0],al
0000005A  0000              add [bx+si],al
0000005C  0000              add [bx+si],al
0000005E  0000              add [bx+si],al
00000060  D802              fadd dword [bp+si]
00000062  0000              add [bx+si],al
00000064  0000              add [bx+si],al
00000066  0000              add [bx+si],al
00000068  D802              fadd dword [bp+si]
0000006A  0000              add [bx+si],al
0000006C  0000              add [bx+si],al
0000006E  0000              add [bx+si],al
00000070  0800              or [bx+si],al
00000072  0000              add [bx+si],al
00000074  0000              add [bx+si],al
00000076  0000              add [bx+si],al
00000078  0300              add ax,[bx+si]
0000007A  0000              add [bx+si],al
0000007C  0400              add al,0x0
0000007E  0000              add [bx+si],al
00000080  1803              sbb [bp+di],al
00000082  0000              add [bx+si],al
00000084  0000              add [bx+si],al
00000086  0000              add [bx+si],al
00000088  1803              sbb [bp+di],al
0000008A  0000              add [bx+si],al
0000008C  0000              add [bx+si],al
0000008E  0000              add [bx+si],al
00000090  1803              sbb [bp+di],al
00000092  0000              add [bx+si],al
00000094  0000              add [bx+si],al
00000096  0000              add [bx+si],al
00000098  1C00              sbb al,0x0
0000009A  0000              add [bx+si],al
0000009C  0000              add [bx+si],al
0000009E  0000              add [bx+si],al
000000A0  1C00              sbb al,0x0
000000A2  0000              add [bx+si],al
000000A4  0000              add [bx+si],al
000000A6  0000              add [bx+si],al
000000A8  0100              add [bx+si],ax
000000AA  0000              add [bx+si],al
000000AC  0000              add [bx+si],al
000000AE  0000              add [bx+si],al
000000B0  0100              add [bx+si],ax
000000B2  0000              add [bx+si],al
000000B4  0400              add al,0x0
000000B6  0000              add [bx+si],al
000000B8  0000              add [bx+si],al
000000BA  0000              add [bx+si],al
000000BC  0000              add [bx+si],al
000000BE  0000              add [bx+si],al
000000C0  0000              add [bx+si],al
000000C2  0000              add [bx+si],al
000000C4  0000              add [bx+si],al
000000C6  0000              add [bx+si],al
000000C8  0000              add [bx+si],al
000000CA  0000              add [bx+si],al
000000CC  0000              add [bx+si],al
000000CE  0000              add [bx+si],al
000000D0  30060000          xor [0x0],al
000000D4  0000              add [bx+si],al
000000D6  0000              add [bx+si],al
000000D8  30060000          xor [0x0],al
000000DC  0000              add [bx+si],al
000000DE  0000              add [bx+si],al
000000E0  0010              add [bx+si],dl
000000E2  0000              add [bx+si],al
000000E4  0000              add [bx+si],al
000000E6  0000              add [bx+si],al
000000E8  0100              add [bx+si],ax
000000EA  0000              add [bx+si],al
000000EC  050000            add ax,0x0
000000EF  0000              add [bx+si],al
000000F1  1000              adc [bx+si],al
000000F3  0000              add [bx+si],al
000000F5  0000              add [bx+si],al
000000F7  0000              add [bx+si],al
000000F9  1000              adc [bx+si],al
000000FB  0000              add [bx+si],al
000000FD  0000              add [bx+si],al
000000FF  0000              add [bx+si],al
00000101  1000              adc [bx+si],al
00000103  0000              add [bx+si],al
00000105  0000              add [bx+si],al
00000107  006501            add [di+0x1],ah
0000010A  0000              add [bx+si],al
0000010C  0000              add [bx+si],al
0000010E  0000              add [bx+si],al
00000110  650100            add [gs:bx+si],ax
00000113  0000              add [bx+si],al
00000115  0000              add [bx+si],al
00000117  0000              add [bx+si],al
00000119  1000              adc [bx+si],al
0000011B  0000              add [bx+si],al
0000011D  0000              add [bx+si],al
0000011F  0001              add [bx+di],al
00000121  0000              add [bx+si],al
00000123  0004              add [si],al
00000125  0000              add [bx+si],al
00000127  0000              add [bx+si],al
00000129  2000              and [bx+si],al
0000012B  0000              add [bx+si],al
0000012D  0000              add [bx+si],al
0000012F  0000              add [bx+si],al
00000131  2000              and [bx+si],al
00000133  0000              add [bx+si],al
00000135  0000              add [bx+si],al
00000137  0000              add [bx+si],al
00000139  2000              and [bx+si],al
0000013B  0000              add [bx+si],al
0000013D  0000              add [bx+si],al
0000013F  00BC0000          add [si+0x0],bh
00000143  0000              add [bx+si],al
00000145  0000              add [bx+si],al
00000147  00BC0000          add [si+0x0],bh
0000014B  0000              add [bx+si],al
0000014D  0000              add [bx+si],al
0000014F  0000              add [bx+si],al
00000151  1000              adc [bx+si],al
00000153  0000              add [bx+si],al
00000155  0000              add [bx+si],al
00000157  0001              add [bx+di],al
00000159  0000              add [bx+si],al
0000015B  00060000          add [0x0],al
0000015F  00D0              add al,dl
00000161  2D0000            sub ax,0x0
00000164  0000              add [bx+si],al
00000166  0000              add [bx+si],al
00000168  D03D              sar byte [di],1
0000016A  0000              add [bx+si],al
0000016C  0000              add [bx+si],al
0000016E  0000              add [bx+si],al
00000170  D03D              sar byte [di],1
00000172  0000              add [bx+si],al
00000174  0000              add [bx+si],al
00000176  0000              add [bx+si],al
00000178  48                dec ax
00000179  0200              add al,[bx+si]
0000017B  0000              add [bx+si],al
0000017D  0000              add [bx+si],al
0000017F  005002            add [bx+si+0x2],dl
00000182  0000              add [bx+si],al
00000184  0000              add [bx+si],al
00000186  0000              add [bx+si],al
00000188  0010              add [bx+si],dl
0000018A  0000              add [bx+si],al
0000018C  0000              add [bx+si],al
0000018E  0000              add [bx+si],al
00000190  0200              add al,[bx+si]
00000192  0000              add [bx+si],al
00000194  06                push es
00000195  0000              add [bx+si],al
00000197  00E0              add al,ah
00000199  2D0000            sub ax,0x0
0000019C  0000              add [bx+si],al
0000019E  0000              add [bx+si],al
000001A0  E03D              loopne 0x1df
000001A2  0000              add [bx+si],al
000001A4  0000              add [bx+si],al
000001A6  0000              add [bx+si],al
000001A8  E03D              loopne 0x1e7
000001AA  0000              add [bx+si],al
000001AC  0000              add [bx+si],al
000001AE  0000              add [bx+si],al
000001B0  E001              loopne 0x1b3
000001B2  0000              add [bx+si],al
000001B4  0000              add [bx+si],al
000001B6  0000              add [bx+si],al
000001B8  E001              loopne 0x1bb
000001BA  0000              add [bx+si],al
000001BC  0000              add [bx+si],al
000001BE  0000              add [bx+si],al
000001C0  0800              or [bx+si],al
000001C2  0000              add [bx+si],al
000001C4  0000              add [bx+si],al
000001C6  0000              add [bx+si],al
000001C8  0400              add al,0x0
000001CA  0000              add [bx+si],al
000001CC  0400              add al,0x0
000001CE  0000              add [bx+si],al
000001D0  3803              cmp [bp+di],al
000001D2  0000              add [bx+si],al
000001D4  0000              add [bx+si],al
000001D6  0000              add [bx+si],al
000001D8  3803              cmp [bp+di],al
000001DA  0000              add [bx+si],al
000001DC  0000              add [bx+si],al
000001DE  0000              add [bx+si],al
000001E0  3803              cmp [bp+di],al
000001E2  0000              add [bx+si],al
000001E4  0000              add [bx+si],al
000001E6  0000              add [bx+si],al
000001E8  40                inc ax
000001E9  0000              add [bx+si],al
000001EB  0000              add [bx+si],al
000001ED  0000              add [bx+si],al
000001EF  004000            add [bx+si+0x0],al
000001F2  0000              add [bx+si],al
000001F4  0000              add [bx+si],al
000001F6  0000              add [bx+si],al
000001F8  0800              or [bx+si],al
000001FA  0000              add [bx+si],al
000001FC  0000              add [bx+si],al
000001FE  0000              add [bx+si],al
00000200  0400              add al,0x0
00000202  0000              add [bx+si],al
00000204  0400              add al,0x0
00000206  0000              add [bx+si],al
00000208  7803              js 0x20d
0000020A  0000              add [bx+si],al
0000020C  0000              add [bx+si],al
0000020E  0000              add [bx+si],al
00000210  7803              js 0x215
00000212  0000              add [bx+si],al
00000214  0000              add [bx+si],al
00000216  0000              add [bx+si],al
00000218  7803              js 0x21d
0000021A  0000              add [bx+si],al
0000021C  0000              add [bx+si],al
0000021E  0000              add [bx+si],al
00000220  44                inc sp
00000221  0000              add [bx+si],al
00000223  0000              add [bx+si],al
00000225  0000              add [bx+si],al
00000227  004400            add [si+0x0],al
0000022A  0000              add [bx+si],al
0000022C  0000              add [bx+si],al
0000022E  0000              add [bx+si],al
00000230  0400              add al,0x0
00000232  0000              add [bx+si],al
00000234  0000              add [bx+si],al
00000236  0000              add [bx+si],al
00000238  53                push bx
00000239  E574              in ax,0x74
0000023B  640400            fs add al,0x0
0000023E  0000              add [bx+si],al
00000240  3803              cmp [bp+di],al
00000242  0000              add [bx+si],al
00000244  0000              add [bx+si],al
00000246  0000              add [bx+si],al
00000248  3803              cmp [bp+di],al
0000024A  0000              add [bx+si],al
0000024C  0000              add [bx+si],al
0000024E  0000              add [bx+si],al
00000250  3803              cmp [bp+di],al
00000252  0000              add [bx+si],al
00000254  0000              add [bx+si],al
00000256  0000              add [bx+si],al
00000258  40                inc ax
00000259  0000              add [bx+si],al
0000025B  0000              add [bx+si],al
0000025D  0000              add [bx+si],al
0000025F  004000            add [bx+si+0x0],al
00000262  0000              add [bx+si],al
00000264  0000              add [bx+si],al
00000266  0000              add [bx+si],al
00000268  0800              or [bx+si],al
0000026A  0000              add [bx+si],al
0000026C  0000              add [bx+si],al
0000026E  0000              add [bx+si],al
00000270  50                push ax
00000271  E574              in ax,0x74
00000273  640400            fs add al,0x0
00000276  0000              add [bx+si],al
00000278  1820              sbb [bx+si],ah
0000027A  0000              add [bx+si],al
0000027C  0000              add [bx+si],al
0000027E  0000              add [bx+si],al
00000280  1820              sbb [bx+si],ah
00000282  0000              add [bx+si],al
00000284  0000              add [bx+si],al
00000286  0000              add [bx+si],al
00000288  1820              sbb [bx+si],ah
0000028A  0000              add [bx+si],al
0000028C  0000              add [bx+si],al
0000028E  0000              add [bx+si],al
00000290  2400              and al,0x0
00000292  0000              add [bx+si],al
00000294  0000              add [bx+si],al
00000296  0000              add [bx+si],al
00000298  2400              and al,0x0
0000029A  0000              add [bx+si],al
0000029C  0000              add [bx+si],al
0000029E  0000              add [bx+si],al
000002A0  0400              add al,0x0
000002A2  0000              add [bx+si],al
000002A4  0000              add [bx+si],al
000002A6  0000              add [bx+si],al
000002A8  51                push cx
000002A9  E574              in ax,0x74
000002AB  6406              fs push es
000002AD  0000              add [bx+si],al
000002AF  0000              add [bx+si],al
000002B1  0000              add [bx+si],al
000002B3  0000              add [bx+si],al
000002B5  0000              add [bx+si],al
000002B7  0000              add [bx+si],al
000002B9  0000              add [bx+si],al
000002BB  0000              add [bx+si],al
000002BD  0000              add [bx+si],al
000002BF  0000              add [bx+si],al
000002C1  0000              add [bx+si],al
000002C3  0000              add [bx+si],al
000002C5  0000              add [bx+si],al
000002C7  0000              add [bx+si],al
000002C9  0000              add [bx+si],al
000002CB  0000              add [bx+si],al
000002CD  0000              add [bx+si],al
000002CF  0000              add [bx+si],al
000002D1  0000              add [bx+si],al
000002D3  0000              add [bx+si],al
000002D5  0000              add [bx+si],al
000002D7  0010              add [bx+si],dl
000002D9  0000              add [bx+si],al
000002DB  0000              add [bx+si],al
000002DD  0000              add [bx+si],al
000002DF  0052E5            add [bp+si-0x1b],dl
000002E2  7464              jz 0x348
000002E4  0400              add al,0x0
000002E6  0000              add [bx+si],al
000002E8  D02D              shr byte [di],1
000002EA  0000              add [bx+si],al
000002EC  0000              add [bx+si],al
000002EE  0000              add [bx+si],al
000002F0  D03D              sar byte [di],1
000002F2  0000              add [bx+si],al
000002F4  0000              add [bx+si],al
000002F6  0000              add [bx+si],al
000002F8  D03D              sar byte [di],1
000002FA  0000              add [bx+si],al
000002FC  0000              add [bx+si],al
000002FE  0000              add [bx+si],al
00000300  3002              xor [bp+si],al
00000302  0000              add [bx+si],al
00000304  0000              add [bx+si],al
00000306  0000              add [bx+si],al
00000308  3002              xor [bp+si],al
0000030A  0000              add [bx+si],al
0000030C  0000              add [bx+si],al
0000030E  0000              add [bx+si],al
00000310  0100              add [bx+si],ax
00000312  0000              add [bx+si],al
00000314  0000              add [bx+si],al
00000316  0000              add [bx+si],al
00000318  2F                das
00000319  6C                insb
0000031A  696236342F        imul sp,[bp+si+0x36],word 0x2f34
0000031F  6C                insb
00000320  642D6C69          fs sub ax,0x696c
00000324  6E                outsb
00000325  7578              jnz 0x39f
00000327  2D7838            sub ax,0x3878
0000032A  362D3634          ss sub ax,0x3436
0000032E  2E736F            cs jnc 0x3a0
00000331  2E3200            xor al,[cs:bx+si]
00000334  0000              add [bx+si],al
00000336  0000              add [bx+si],al
00000338  0400              add al,0x0
0000033A  0000              add [bx+si],al
0000033C  3000              xor [bx+si],al
0000033E  0000              add [bx+si],al
00000340  050000            add ax,0x0
00000343  00474E            add [bx+0x4e],al
00000346  55                push bp
00000347  0002              add [bp+si],al
00000349  8000C0            add byte [bx+si],0xc0
0000034C  0400              add al,0x0
0000034E  0000              add [bx+si],al
00000350  0100              add [bx+si],ax
00000352  0000              add [bx+si],al
00000354  0000              add [bx+si],al
00000356  0000              add [bx+si],al
00000358  0100              add [bx+si],ax
0000035A  01C0              add ax,ax
0000035C  0400              add al,0x0
0000035E  0000              add [bx+si],al
00000360  0100              add [bx+si],ax
00000362  0000              add [bx+si],al
00000364  0000              add [bx+si],al
00000366  0000              add [bx+si],al
00000368  0200              add al,[bx+si]
0000036A  01C0              add ax,ax
0000036C  0400              add al,0x0
0000036E  0000              add [bx+si],al
00000370  0000              add [bx+si],al
00000372  0000              add [bx+si],al
00000374  0000              add [bx+si],al
00000376  0000              add [bx+si],al
00000378  0400              add al,0x0
0000037A  0000              add [bx+si],al
0000037C  1400              adc al,0x0
0000037E  0000              add [bx+si],al
00000380  0300              add ax,[bx+si]
00000382  0000              add [bx+si],al
00000384  47                inc di
00000385  4E                dec si
00000386  55                push bp
00000387  006DA1            add [di-0x5f],ch
0000038A  3F                aas
0000038B  20F5              and ch,dh
0000038D  1C0C              sbb al,0xc
0000038F  C7                db 0xc7
00000390  5E                pop si
00000391  26097B69          or [es:bp+di+0x69],di
00000395  61                popa
00000396  63E0              arpl ax,sp
00000398  81CE5780          or si,0x8057
0000039C  0400              add al,0x0
0000039E  0000              add [bx+si],al
000003A0  1000              adc [bx+si],al
000003A2  0000              add [bx+si],al
000003A4  0100              add [bx+si],ax
000003A6  0000              add [bx+si],al
000003A8  47                inc di
000003A9  4E                dec si
000003AA  55                push bp
000003AB  0000              add [bx+si],al
000003AD  0000              add [bx+si],al
000003AF  0004              add [si],al
000003B1  0000              add [bx+si],al
000003B3  0004              add [si],al
000003B5  0000              add [bx+si],al
000003B7  0000              add [bx+si],al
000003B9  0000              add [bx+si],al
000003BB  0000              add [bx+si],al
000003BD  0000              add [bx+si],al
000003BF  0001              add [bx+di],al
000003C1  0000              add [bx+si],al
000003C3  0001              add [bx+di],al
000003C5  0000              add [bx+si],al
000003C7  0001              add [bx+di],al
000003C9  0000              add [bx+si],al
000003CB  0000              add [bx+si],al
000003CD  0000              add [bx+si],al
000003CF  0000              add [bx+si],al
000003D1  0000              add [bx+si],al
000003D3  0000              add [bx+si],al
000003D5  0000              add [bx+si],al
000003D7  0000              add [bx+si],al
000003D9  0000              add [bx+si],al
000003DB  0000              add [bx+si],al
000003DD  0000              add [bx+si],al
000003DF  0000              add [bx+si],al
000003E1  0000              add [bx+si],al
000003E3  0000              add [bx+si],al
000003E5  0000              add [bx+si],al
000003E7  0000              add [bx+si],al
000003E9  0000              add [bx+si],al
000003EB  0000              add [bx+si],al
000003ED  0000              add [bx+si],al
000003EF  0000              add [bx+si],al
000003F1  0000              add [bx+si],al
000003F3  0000              add [bx+si],al
000003F5  0000              add [bx+si],al
000003F7  0001              add [bx+di],al
000003F9  0000              add [bx+si],al
000003FB  0012              add [bp+si],dl
000003FD  0000              add [bx+si],al
000003FF  0000              add [bx+si],al
00000401  0000              add [bx+si],al
00000403  0000              add [bx+si],al
00000405  0000              add [bx+si],al
00000407  0000              add [bx+si],al
00000409  0000              add [bx+si],al
0000040B  0000              add [bx+si],al
0000040D  0000              add [bx+si],al
0000040F  004A00            add [bp+si+0x0],cl
00000412  0000              add [bx+si],al
00000414  2000              and [bx+si],al
00000416  0000              add [bx+si],al
00000418  0000              add [bx+si],al
0000041A  0000              add [bx+si],al
0000041C  0000              add [bx+si],al
0000041E  0000              add [bx+si],al
00000420  0000              add [bx+si],al
00000422  0000              add [bx+si],al
00000424  0000              add [bx+si],al
00000426  0000              add [bx+si],al
00000428  2200              and al,[bx+si]
0000042A  0000              add [bx+si],al
0000042C  1200              adc al,[bx+si]
0000042E  0000              add [bx+si],al
00000430  0000              add [bx+si],al
00000432  0000              add [bx+si],al
00000434  0000              add [bx+si],al
00000436  0000              add [bx+si],al
00000438  0000              add [bx+si],al
0000043A  0000              add [bx+si],al
0000043C  0000              add [bx+si],al
0000043E  0000              add [bx+si],al
00000440  660000            o32 add [bx+si],al
00000443  0020              add [bx+si],ah
00000445  0000              add [bx+si],al
00000447  0000              add [bx+si],al
00000449  0000              add [bx+si],al
0000044B  0000              add [bx+si],al
0000044D  0000              add [bx+si],al
0000044F  0000              add [bx+si],al
00000451  0000              add [bx+si],al
00000453  0000              add [bx+si],al
00000455  0000              add [bx+si],al
00000457  007500            add [di+0x0],dh
0000045A  0000              add [bx+si],al
0000045C  2000              and [bx+si],al
0000045E  0000              add [bx+si],al
00000460  0000              add [bx+si],al
00000462  0000              add [bx+si],al
00000464  0000              add [bx+si],al
00000466  0000              add [bx+si],al
00000468  0000              add [bx+si],al
0000046A  0000              add [bx+si],al
0000046C  0000              add [bx+si],al
0000046E  0000              add [bx+si],al
00000470  1300              adc ax,[bx+si]
00000472  0000              add [bx+si],al
00000474  2200              and al,[bx+si]
00000476  0000              add [bx+si],al
00000478  0000              add [bx+si],al
0000047A  0000              add [bx+si],al
0000047C  0000              add [bx+si],al
0000047E  0000              add [bx+si],al
00000480  0000              add [bx+si],al
00000482  0000              add [bx+si],al
00000484  0000              add [bx+si],al
00000486  0000              add [bx+si],al
00000488  005F5F            add [bx+0x5f],bl
0000048B  6C                insb
0000048C  6962635F73        imul sp,[bp+si+0x63],word 0x735f
00000491  7461              jz 0x4f4
00000493  7274              jc 0x509
00000495  5F                pop di
00000496  6D                insw
00000497  61                popa
00000498  696E005F5F        imul bp,[bp+0x0],word 0x5f5f
0000049D  637861            arpl [bx+si+0x61],di
000004A0  5F                pop di
000004A1  66696E616C697A65  imul ebp,[bp+0x61],dword 0x657a696c
000004A9  007072            add [bx+si+0x72],dh
000004AC  696E746600        imul bp,[bp+0x74],word 0x66
000004B1  6C                insb
000004B2  6962632E73        imul sp,[bp+si+0x63],word 0x732e
000004B7  6F                outsw
000004B8  2E3600474C        add [ss:bx+0x4c],al
000004BD  49                dec cx
000004BE  42                inc dx
000004BF  43                inc bx
000004C0  5F                pop di
000004C1  322E322E          xor ch,[0x2e32]
000004C5  350047            xor ax,0x4700
000004C8  4C                dec sp
000004C9  49                dec cx
000004CA  42                inc dx
000004CB  43                inc bx
000004CC  5F                pop di
000004CD  322E3334          xor ch,[0x3433]
000004D1  005F49            add [bx+0x49],bl
000004D4  54                push sp
000004D5  4D                dec bp
000004D6  5F                pop di
000004D7  64657265          gs jc 0x540
000004DB  676973746572      imul si,[ebx+0x74],word 0x7265
000004E1  54                push sp
000004E2  4D                dec bp
000004E3  43                inc bx
000004E4  6C                insb
000004E5  6F                outsw
000004E6  6E                outsb
000004E7  6554              gs push sp
000004E9  61                popa
000004EA  626C65            bound bp,[si+0x65]
000004ED  005F5F            add [bx+0x5f],bl
000004F0  676D              a32 insw
000004F2  6F                outsw
000004F3  6E                outsb
000004F4  5F                pop di
000004F5  7374              jnc 0x56b
000004F7  61                popa
000004F8  7274              jc 0x56e
000004FA  5F                pop di
000004FB  5F                pop di
000004FC  005F49            add [bx+0x49],bl
000004FF  54                push sp
00000500  4D                dec bp
00000501  5F                pop di
00000502  7265              jc 0x569
00000504  676973746572      imul si,[ebx+0x74],word 0x7265
0000050A  54                push sp
0000050B  4D                dec bp
0000050C  43                inc bx
0000050D  6C                insb
0000050E  6F                outsw
0000050F  6E                outsb
00000510  6554              gs push sp
00000512  61                popa
00000513  626C65            bound bp,[si+0x65]
00000516  0000              add [bx+si],al
00000518  0000              add [bx+si],al
0000051A  0200              add al,[bx+si]
0000051C  0100              add [bx+si],ax
0000051E  0300              add ax,[bx+si]
00000520  0100              add [bx+si],ax
00000522  0100              add [bx+si],ax
00000524  0300              add ax,[bx+si]
00000526  0000              add [bx+si],al
00000528  0100              add [bx+si],ax
0000052A  0200              add al,[bx+si]
0000052C  2900              sub [bx+si],ax
0000052E  0000              add [bx+si],al
00000530  1000              adc [bx+si],al
00000532  0000              add [bx+si],al
00000534  0000              add [bx+si],al
00000536  0000              add [bx+si],al
00000538  751A              jnz 0x554
0000053A  69090000          imul cx,[bx+di],word 0x0
0000053E  0300              add ax,[bx+si]
00000540  3300              xor ax,[bx+si]
00000542  0000              add [bx+si],al
00000544  1000              adc [bx+si],al
00000546  0000              add [bx+si],al
00000548  B491              mov ah,0x91
0000054A  96                xchg ax,si
0000054B  06                push es
0000054C  0000              add [bx+si],al
0000054E  0200              add al,[bx+si]
00000550  3F                aas
00000551  0000              add [bx+si],al
00000553  0000              add [bx+si],al
00000555  0000              add [bx+si],al
00000557  00D0              add al,dl
00000559  3D0000            cmp ax,0x0
0000055C  0000              add [bx+si],al
0000055E  0000              add [bx+si],al
00000560  0800              or [bx+si],al
00000562  0000              add [bx+si],al
00000564  0000              add [bx+si],al
00000566  0000              add [bx+si],al
00000568  3011              xor [bx+di],dl
0000056A  0000              add [bx+si],al
0000056C  0000              add [bx+si],al
0000056E  0000              add [bx+si],al
00000570  D83D              fdivr dword [di]
00000572  0000              add [bx+si],al
00000574  0000              add [bx+si],al
00000576  0000              add [bx+si],al
00000578  0800              or [bx+si],al
0000057A  0000              add [bx+si],al
0000057C  0000              add [bx+si],al
0000057E  0000              add [bx+si],al
00000580  E010              loopne 0x592
00000582  0000              add [bx+si],al
00000584  0000              add [bx+si],al
00000586  0000              add [bx+si],al
00000588  104000            adc [bx+si+0x0],al
0000058B  0000              add [bx+si],al
0000058D  0000              add [bx+si],al
0000058F  0008              add [bx+si],cl
00000591  0000              add [bx+si],al
00000593  0000              add [bx+si],al
00000595  0000              add [bx+si],al
00000597  0010              add [bx+si],dl
00000599  40                inc ax
0000059A  0000              add [bx+si],al
0000059C  0000              add [bx+si],al
0000059E  0000              add [bx+si],al
000005A0  C03F00            sar byte [bx],byte 0x0
000005A3  0000              add [bx+si],al
000005A5  0000              add [bx+si],al
000005A7  00060000          add [0x0],al
000005AB  0001              add [bx+di],al
000005AD  0000              add [bx+si],al
000005AF  0000              add [bx+si],al
000005B1  0000              add [bx+si],al
000005B3  0000              add [bx+si],al
000005B5  0000              add [bx+si],al
000005B7  00C8              add al,cl
000005B9  3F                aas
000005BA  0000              add [bx+si],al
000005BC  0000              add [bx+si],al
000005BE  0000              add [bx+si],al
000005C0  06                push es
000005C1  0000              add [bx+si],al
000005C3  0002              add [bp+si],al
000005C5  0000              add [bx+si],al
000005C7  0000              add [bx+si],al
000005C9  0000              add [bx+si],al
000005CB  0000              add [bx+si],al
000005CD  0000              add [bx+si],al
000005CF  00D0              add al,dl
000005D1  3F                aas
000005D2  0000              add [bx+si],al
000005D4  0000              add [bx+si],al
000005D6  0000              add [bx+si],al
000005D8  06                push es
000005D9  0000              add [bx+si],al
000005DB  0004              add [si],al
000005DD  0000              add [bx+si],al
000005DF  0000              add [bx+si],al
000005E1  0000              add [bx+si],al
000005E3  0000              add [bx+si],al
000005E5  0000              add [bx+si],al
000005E7  00D8              add al,bl
000005E9  3F                aas
000005EA  0000              add [bx+si],al
000005EC  0000              add [bx+si],al
000005EE  0000              add [bx+si],al
000005F0  06                push es
000005F1  0000              add [bx+si],al
000005F3  0005              add [di],al
000005F5  0000              add [bx+si],al
000005F7  0000              add [bx+si],al
000005F9  0000              add [bx+si],al
000005FB  0000              add [bx+si],al
000005FD  0000              add [bx+si],al
000005FF  00E0              add al,ah
00000601  3F                aas
00000602  0000              add [bx+si],al
00000604  0000              add [bx+si],al
00000606  0000              add [bx+si],al
00000608  06                push es
00000609  0000              add [bx+si],al
0000060B  00060000          add [0x0],al
0000060F  0000              add [bx+si],al
00000611  0000              add [bx+si],al
00000613  0000              add [bx+si],al
00000615  0000              add [bx+si],al
00000617  0000              add [bx+si],al
00000619  40                inc ax
0000061A  0000              add [bx+si],al
0000061C  0000              add [bx+si],al
0000061E  0000              add [bx+si],al
00000620  07                pop es
00000621  0000              add [bx+si],al
00000623  0003              add [bp+di],al
00000625  0000              add [bx+si],al
00000627  0000              add [bx+si],al
00000629  0000              add [bx+si],al
0000062B  0000              add [bx+si],al
0000062D  0000              add [bx+si],al
0000062F  0000              add [bx+si],al
00000631  0000              add [bx+si],al
00000633  0000              add [bx+si],al
00000635  0000              add [bx+si],al
00000637  0000              add [bx+si],al
00000639  0000              add [bx+si],al
0000063B  0000              add [bx+si],al
0000063D  0000              add [bx+si],al
0000063F  0000              add [bx+si],al
00000641  0000              add [bx+si],al
00000643  0000              add [bx+si],al
00000645  0000              add [bx+si],al
00000647  0000              add [bx+si],al
00000649  0000              add [bx+si],al
0000064B  0000              add [bx+si],al
0000064D  0000              add [bx+si],al
0000064F  0000              add [bx+si],al
00000651  0000              add [bx+si],al
00000653  0000              add [bx+si],al
00000655  0000              add [bx+si],al
00000657  0000              add [bx+si],al
00000659  0000              add [bx+si],al
0000065B  0000              add [bx+si],al
0000065D  0000              add [bx+si],al
0000065F  0000              add [bx+si],al
00000661  0000              add [bx+si],al
00000663  0000              add [bx+si],al
00000665  0000              add [bx+si],al
00000667  0000              add [bx+si],al
00000669  0000              add [bx+si],al
0000066B  0000              add [bx+si],al
0000066D  0000              add [bx+si],al
0000066F  0000              add [bx+si],al
00000671  0000              add [bx+si],al
00000673  0000              add [bx+si],al
00000675  0000              add [bx+si],al
00000677  0000              add [bx+si],al
00000679  0000              add [bx+si],al
0000067B  0000              add [bx+si],al
0000067D  0000              add [bx+si],al
0000067F  0000              add [bx+si],al
00000681  0000              add [bx+si],al
00000683  0000              add [bx+si],al
00000685  0000              add [bx+si],al
00000687  0000              add [bx+si],al
00000689  0000              add [bx+si],al
0000068B  0000              add [bx+si],al
0000068D  0000              add [bx+si],al
0000068F  0000              add [bx+si],al
00000691  0000              add [bx+si],al
00000693  0000              add [bx+si],al
00000695  0000              add [bx+si],al
00000697  0000              add [bx+si],al
00000699  0000              add [bx+si],al
0000069B  0000              add [bx+si],al
0000069D  0000              add [bx+si],al
0000069F  0000              add [bx+si],al
000006A1  0000              add [bx+si],al
000006A3  0000              add [bx+si],al
000006A5  0000              add [bx+si],al
000006A7  0000              add [bx+si],al
000006A9  0000              add [bx+si],al
000006AB  0000              add [bx+si],al
000006AD  0000              add [bx+si],al
000006AF  0000              add [bx+si],al
000006B1  0000              add [bx+si],al
000006B3  0000              add [bx+si],al
000006B5  0000              add [bx+si],al
000006B7  0000              add [bx+si],al
000006B9  0000              add [bx+si],al
000006BB  0000              add [bx+si],al
000006BD  0000              add [bx+si],al
000006BF  0000              add [bx+si],al
000006C1  0000              add [bx+si],al
000006C3  0000              add [bx+si],al
000006C5  0000              add [bx+si],al
000006C7  0000              add [bx+si],al
000006C9  0000              add [bx+si],al
000006CB  0000              add [bx+si],al
000006CD  0000              add [bx+si],al
000006CF  0000              add [bx+si],al
000006D1  0000              add [bx+si],al
000006D3  0000              add [bx+si],al
000006D5  0000              add [bx+si],al
000006D7  0000              add [bx+si],al
000006D9  0000              add [bx+si],al
000006DB  0000              add [bx+si],al
000006DD  0000              add [bx+si],al
000006DF  0000              add [bx+si],al
000006E1  0000              add [bx+si],al
000006E3  0000              add [bx+si],al
000006E5  0000              add [bx+si],al
000006E7  0000              add [bx+si],al
000006E9  0000              add [bx+si],al
000006EB  0000              add [bx+si],al
000006ED  0000              add [bx+si],al
000006EF  0000              add [bx+si],al
000006F1  0000              add [bx+si],al
000006F3  0000              add [bx+si],al
000006F5  0000              add [bx+si],al
000006F7  0000              add [bx+si],al
000006F9  0000              add [bx+si],al
000006FB  0000              add [bx+si],al
000006FD  0000              add [bx+si],al
000006FF  0000              add [bx+si],al
00000701  0000              add [bx+si],al
00000703  0000              add [bx+si],al
00000705  0000              add [bx+si],al
00000707  0000              add [bx+si],al
00000709  0000              add [bx+si],al
0000070B  0000              add [bx+si],al
0000070D  0000              add [bx+si],al
0000070F  0000              add [bx+si],al
00000711  0000              add [bx+si],al
00000713  0000              add [bx+si],al
00000715  0000              add [bx+si],al
00000717  0000              add [bx+si],al
00000719  0000              add [bx+si],al
0000071B  0000              add [bx+si],al
0000071D  0000              add [bx+si],al
0000071F  0000              add [bx+si],al
00000721  0000              add [bx+si],al
00000723  0000              add [bx+si],al
00000725  0000              add [bx+si],al
00000727  0000              add [bx+si],al
00000729  0000              add [bx+si],al
0000072B  0000              add [bx+si],al
0000072D  0000              add [bx+si],al
0000072F  0000              add [bx+si],al
00000731  0000              add [bx+si],al
00000733  0000              add [bx+si],al
00000735  0000              add [bx+si],al
00000737  0000              add [bx+si],al
00000739  0000              add [bx+si],al
0000073B  0000              add [bx+si],al
0000073D  0000              add [bx+si],al
0000073F  0000              add [bx+si],al
00000741  0000              add [bx+si],al
00000743  0000              add [bx+si],al
00000745  0000              add [bx+si],al
00000747  0000              add [bx+si],al
00000749  0000              add [bx+si],al
0000074B  0000              add [bx+si],al
0000074D  0000              add [bx+si],al
0000074F  0000              add [bx+si],al
00000751  0000              add [bx+si],al
00000753  0000              add [bx+si],al
00000755  0000              add [bx+si],al
00000757  0000              add [bx+si],al
00000759  0000              add [bx+si],al
0000075B  0000              add [bx+si],al
0000075D  0000              add [bx+si],al
0000075F  0000              add [bx+si],al
00000761  0000              add [bx+si],al
00000763  0000              add [bx+si],al
00000765  0000              add [bx+si],al
00000767  0000              add [bx+si],al
00000769  0000              add [bx+si],al
0000076B  0000              add [bx+si],al
0000076D  0000              add [bx+si],al
0000076F  0000              add [bx+si],al
00000771  0000              add [bx+si],al
00000773  0000              add [bx+si],al
00000775  0000              add [bx+si],al
00000777  0000              add [bx+si],al
00000779  0000              add [bx+si],al
0000077B  0000              add [bx+si],al
0000077D  0000              add [bx+si],al
0000077F  0000              add [bx+si],al
00000781  0000              add [bx+si],al
00000783  0000              add [bx+si],al
00000785  0000              add [bx+si],al
00000787  0000              add [bx+si],al
00000789  0000              add [bx+si],al
0000078B  0000              add [bx+si],al
0000078D  0000              add [bx+si],al
0000078F  0000              add [bx+si],al
00000791  0000              add [bx+si],al
00000793  0000              add [bx+si],al
00000795  0000              add [bx+si],al
00000797  0000              add [bx+si],al
00000799  0000              add [bx+si],al
0000079B  0000              add [bx+si],al
0000079D  0000              add [bx+si],al
0000079F  0000              add [bx+si],al
000007A1  0000              add [bx+si],al
000007A3  0000              add [bx+si],al
000007A5  0000              add [bx+si],al
000007A7  0000              add [bx+si],al
000007A9  0000              add [bx+si],al
000007AB  0000              add [bx+si],al
000007AD  0000              add [bx+si],al
000007AF  0000              add [bx+si],al
000007B1  0000              add [bx+si],al
000007B3  0000              add [bx+si],al
000007B5  0000              add [bx+si],al
000007B7  0000              add [bx+si],al
000007B9  0000              add [bx+si],al
000007BB  0000              add [bx+si],al
000007BD  0000              add [bx+si],al
000007BF  0000              add [bx+si],al
000007C1  0000              add [bx+si],al
000007C3  0000              add [bx+si],al
000007C5  0000              add [bx+si],al
000007C7  0000              add [bx+si],al
000007C9  0000              add [bx+si],al
000007CB  0000              add [bx+si],al
000007CD  0000              add [bx+si],al
000007CF  0000              add [bx+si],al
000007D1  0000              add [bx+si],al
000007D3  0000              add [bx+si],al
000007D5  0000              add [bx+si],al
000007D7  0000              add [bx+si],al
000007D9  0000              add [bx+si],al
000007DB  0000              add [bx+si],al
000007DD  0000              add [bx+si],al
000007DF  0000              add [bx+si],al
000007E1  0000              add [bx+si],al
000007E3  0000              add [bx+si],al
000007E5  0000              add [bx+si],al
000007E7  0000              add [bx+si],al
000007E9  0000              add [bx+si],al
000007EB  0000              add [bx+si],al
000007ED  0000              add [bx+si],al
000007EF  0000              add [bx+si],al
000007F1  0000              add [bx+si],al
000007F3  0000              add [bx+si],al
000007F5  0000              add [bx+si],al
000007F7  0000              add [bx+si],al
000007F9  0000              add [bx+si],al
000007FB  0000              add [bx+si],al
000007FD  0000              add [bx+si],al
000007FF  0000              add [bx+si],al
00000801  0000              add [bx+si],al
00000803  0000              add [bx+si],al
00000805  0000              add [bx+si],al
00000807  0000              add [bx+si],al
00000809  0000              add [bx+si],al
0000080B  0000              add [bx+si],al
0000080D  0000              add [bx+si],al
0000080F  0000              add [bx+si],al
00000811  0000              add [bx+si],al
00000813  0000              add [bx+si],al
00000815  0000              add [bx+si],al
00000817  0000              add [bx+si],al
00000819  0000              add [bx+si],al
0000081B  0000              add [bx+si],al
0000081D  0000              add [bx+si],al
0000081F  0000              add [bx+si],al
00000821  0000              add [bx+si],al
00000823  0000              add [bx+si],al
00000825  0000              add [bx+si],al
00000827  0000              add [bx+si],al
00000829  0000              add [bx+si],al
0000082B  0000              add [bx+si],al
0000082D  0000              add [bx+si],al
0000082F  0000              add [bx+si],al
00000831  0000              add [bx+si],al
00000833  0000              add [bx+si],al
00000835  0000              add [bx+si],al
00000837  0000              add [bx+si],al
00000839  0000              add [bx+si],al
0000083B  0000              add [bx+si],al
0000083D  0000              add [bx+si],al
0000083F  0000              add [bx+si],al
00000841  0000              add [bx+si],al
00000843  0000              add [bx+si],al
00000845  0000              add [bx+si],al
00000847  0000              add [bx+si],al
00000849  0000              add [bx+si],al
0000084B  0000              add [bx+si],al
0000084D  0000              add [bx+si],al
0000084F  0000              add [bx+si],al
00000851  0000              add [bx+si],al
00000853  0000              add [bx+si],al
00000855  0000              add [bx+si],al
00000857  0000              add [bx+si],al
00000859  0000              add [bx+si],al
0000085B  0000              add [bx+si],al
0000085D  0000              add [bx+si],al
0000085F  0000              add [bx+si],al
00000861  0000              add [bx+si],al
00000863  0000              add [bx+si],al
00000865  0000              add [bx+si],al
00000867  0000              add [bx+si],al
00000869  0000              add [bx+si],al
0000086B  0000              add [bx+si],al
0000086D  0000              add [bx+si],al
0000086F  0000              add [bx+si],al
00000871  0000              add [bx+si],al
00000873  0000              add [bx+si],al
00000875  0000              add [bx+si],al
00000877  0000              add [bx+si],al
00000879  0000              add [bx+si],al
0000087B  0000              add [bx+si],al
0000087D  0000              add [bx+si],al
0000087F  0000              add [bx+si],al
00000881  0000              add [bx+si],al
00000883  0000              add [bx+si],al
00000885  0000              add [bx+si],al
00000887  0000              add [bx+si],al
00000889  0000              add [bx+si],al
0000088B  0000              add [bx+si],al
0000088D  0000              add [bx+si],al
0000088F  0000              add [bx+si],al
00000891  0000              add [bx+si],al
00000893  0000              add [bx+si],al
00000895  0000              add [bx+si],al
00000897  0000              add [bx+si],al
00000899  0000              add [bx+si],al
0000089B  0000              add [bx+si],al
0000089D  0000              add [bx+si],al
0000089F  0000              add [bx+si],al
000008A1  0000              add [bx+si],al
000008A3  0000              add [bx+si],al
000008A5  0000              add [bx+si],al
000008A7  0000              add [bx+si],al
000008A9  0000              add [bx+si],al
000008AB  0000              add [bx+si],al
000008AD  0000              add [bx+si],al
000008AF  0000              add [bx+si],al
000008B1  0000              add [bx+si],al
000008B3  0000              add [bx+si],al
000008B5  0000              add [bx+si],al
000008B7  0000              add [bx+si],al
000008B9  0000              add [bx+si],al
000008BB  0000              add [bx+si],al
000008BD  0000              add [bx+si],al
000008BF  0000              add [bx+si],al
000008C1  0000              add [bx+si],al
000008C3  0000              add [bx+si],al
000008C5  0000              add [bx+si],al
000008C7  0000              add [bx+si],al
000008C9  0000              add [bx+si],al
000008CB  0000              add [bx+si],al
000008CD  0000              add [bx+si],al
000008CF  0000              add [bx+si],al
000008D1  0000              add [bx+si],al
000008D3  0000              add [bx+si],al
000008D5  0000              add [bx+si],al
000008D7  0000              add [bx+si],al
000008D9  0000              add [bx+si],al
000008DB  0000              add [bx+si],al
000008DD  0000              add [bx+si],al
000008DF  0000              add [bx+si],al
000008E1  0000              add [bx+si],al
000008E3  0000              add [bx+si],al
000008E5  0000              add [bx+si],al
000008E7  0000              add [bx+si],al
000008E9  0000              add [bx+si],al
000008EB  0000              add [bx+si],al
000008ED  0000              add [bx+si],al
000008EF  0000              add [bx+si],al
000008F1  0000              add [bx+si],al
000008F3  0000              add [bx+si],al
000008F5  0000              add [bx+si],al
000008F7  0000              add [bx+si],al
000008F9  0000              add [bx+si],al
000008FB  0000              add [bx+si],al
000008FD  0000              add [bx+si],al
000008FF  0000              add [bx+si],al
00000901  0000              add [bx+si],al
00000903  0000              add [bx+si],al
00000905  0000              add [bx+si],al
00000907  0000              add [bx+si],al
00000909  0000              add [bx+si],al
0000090B  0000              add [bx+si],al
0000090D  0000              add [bx+si],al
0000090F  0000              add [bx+si],al
00000911  0000              add [bx+si],al
00000913  0000              add [bx+si],al
00000915  0000              add [bx+si],al
00000917  0000              add [bx+si],al
00000919  0000              add [bx+si],al
0000091B  0000              add [bx+si],al
0000091D  0000              add [bx+si],al
0000091F  0000              add [bx+si],al
00000921  0000              add [bx+si],al
00000923  0000              add [bx+si],al
00000925  0000              add [bx+si],al
00000927  0000              add [bx+si],al
00000929  0000              add [bx+si],al
0000092B  0000              add [bx+si],al
0000092D  0000              add [bx+si],al
0000092F  0000              add [bx+si],al
00000931  0000              add [bx+si],al
00000933  0000              add [bx+si],al
00000935  0000              add [bx+si],al
00000937  0000              add [bx+si],al
00000939  0000              add [bx+si],al
0000093B  0000              add [bx+si],al
0000093D  0000              add [bx+si],al
0000093F  0000              add [bx+si],al
00000941  0000              add [bx+si],al
00000943  0000              add [bx+si],al
00000945  0000              add [bx+si],al
00000947  0000              add [bx+si],al
00000949  0000              add [bx+si],al
0000094B  0000              add [bx+si],al
0000094D  0000              add [bx+si],al
0000094F  0000              add [bx+si],al
00000951  0000              add [bx+si],al
00000953  0000              add [bx+si],al
00000955  0000              add [bx+si],al
00000957  0000              add [bx+si],al
00000959  0000              add [bx+si],al
0000095B  0000              add [bx+si],al
0000095D  0000              add [bx+si],al
0000095F  0000              add [bx+si],al
00000961  0000              add [bx+si],al
00000963  0000              add [bx+si],al
00000965  0000              add [bx+si],al
00000967  0000              add [bx+si],al
00000969  0000              add [bx+si],al
0000096B  0000              add [bx+si],al
0000096D  0000              add [bx+si],al
0000096F  0000              add [bx+si],al
00000971  0000              add [bx+si],al
00000973  0000              add [bx+si],al
00000975  0000              add [bx+si],al
00000977  0000              add [bx+si],al
00000979  0000              add [bx+si],al
0000097B  0000              add [bx+si],al
0000097D  0000              add [bx+si],al
0000097F  0000              add [bx+si],al
00000981  0000              add [bx+si],al
00000983  0000              add [bx+si],al
00000985  0000              add [bx+si],al
00000987  0000              add [bx+si],al
00000989  0000              add [bx+si],al
0000098B  0000              add [bx+si],al
0000098D  0000              add [bx+si],al
0000098F  0000              add [bx+si],al
00000991  0000              add [bx+si],al
00000993  0000              add [bx+si],al
00000995  0000              add [bx+si],al
00000997  0000              add [bx+si],al
00000999  0000              add [bx+si],al
0000099B  0000              add [bx+si],al
0000099D  0000              add [bx+si],al
0000099F  0000              add [bx+si],al
000009A1  0000              add [bx+si],al
000009A3  0000              add [bx+si],al
000009A5  0000              add [bx+si],al
000009A7  0000              add [bx+si],al
000009A9  0000              add [bx+si],al
000009AB  0000              add [bx+si],al
000009AD  0000              add [bx+si],al
000009AF  0000              add [bx+si],al
000009B1  0000              add [bx+si],al
000009B3  0000              add [bx+si],al
000009B5  0000              add [bx+si],al
000009B7  0000              add [bx+si],al
000009B9  0000              add [bx+si],al
000009BB  0000              add [bx+si],al
000009BD  0000              add [bx+si],al
000009BF  0000              add [bx+si],al
000009C1  0000              add [bx+si],al
000009C3  0000              add [bx+si],al
000009C5  0000              add [bx+si],al
000009C7  0000              add [bx+si],al
000009C9  0000              add [bx+si],al
000009CB  0000              add [bx+si],al
000009CD  0000              add [bx+si],al
000009CF  0000              add [bx+si],al
000009D1  0000              add [bx+si],al
000009D3  0000              add [bx+si],al
000009D5  0000              add [bx+si],al
000009D7  0000              add [bx+si],al
000009D9  0000              add [bx+si],al
000009DB  0000              add [bx+si],al
000009DD  0000              add [bx+si],al
000009DF  0000              add [bx+si],al
000009E1  0000              add [bx+si],al
000009E3  0000              add [bx+si],al
000009E5  0000              add [bx+si],al
000009E7  0000              add [bx+si],al
000009E9  0000              add [bx+si],al
000009EB  0000              add [bx+si],al
000009ED  0000              add [bx+si],al
000009EF  0000              add [bx+si],al
000009F1  0000              add [bx+si],al
000009F3  0000              add [bx+si],al
000009F5  0000              add [bx+si],al
000009F7  0000              add [bx+si],al
000009F9  0000              add [bx+si],al
000009FB  0000              add [bx+si],al
000009FD  0000              add [bx+si],al
000009FF  0000              add [bx+si],al
00000A01  0000              add [bx+si],al
00000A03  0000              add [bx+si],al
00000A05  0000              add [bx+si],al
00000A07  0000              add [bx+si],al
00000A09  0000              add [bx+si],al
00000A0B  0000              add [bx+si],al
00000A0D  0000              add [bx+si],al
00000A0F  0000              add [bx+si],al
00000A11  0000              add [bx+si],al
00000A13  0000              add [bx+si],al
00000A15  0000              add [bx+si],al
00000A17  0000              add [bx+si],al
00000A19  0000              add [bx+si],al
00000A1B  0000              add [bx+si],al
00000A1D  0000              add [bx+si],al
00000A1F  0000              add [bx+si],al
00000A21  0000              add [bx+si],al
00000A23  0000              add [bx+si],al
00000A25  0000              add [bx+si],al
00000A27  0000              add [bx+si],al
00000A29  0000              add [bx+si],al
00000A2B  0000              add [bx+si],al
00000A2D  0000              add [bx+si],al
00000A2F  0000              add [bx+si],al
00000A31  0000              add [bx+si],al
00000A33  0000              add [bx+si],al
00000A35  0000              add [bx+si],al
00000A37  0000              add [bx+si],al
00000A39  0000              add [bx+si],al
00000A3B  0000              add [bx+si],al
00000A3D  0000              add [bx+si],al
00000A3F  0000              add [bx+si],al
00000A41  0000              add [bx+si],al
00000A43  0000              add [bx+si],al
00000A45  0000              add [bx+si],al
00000A47  0000              add [bx+si],al
00000A49  0000              add [bx+si],al
00000A4B  0000              add [bx+si],al
00000A4D  0000              add [bx+si],al
00000A4F  0000              add [bx+si],al
00000A51  0000              add [bx+si],al
00000A53  0000              add [bx+si],al
00000A55  0000              add [bx+si],al
00000A57  0000              add [bx+si],al
00000A59  0000              add [bx+si],al
00000A5B  0000              add [bx+si],al
00000A5D  0000              add [bx+si],al
00000A5F  0000              add [bx+si],al
00000A61  0000              add [bx+si],al
00000A63  0000              add [bx+si],al
00000A65  0000              add [bx+si],al
00000A67  0000              add [bx+si],al
00000A69  0000              add [bx+si],al
00000A6B  0000              add [bx+si],al
00000A6D  0000              add [bx+si],al
00000A6F  0000              add [bx+si],al
00000A71  0000              add [bx+si],al
00000A73  0000              add [bx+si],al
00000A75  0000              add [bx+si],al
00000A77  0000              add [bx+si],al
00000A79  0000              add [bx+si],al
00000A7B  0000              add [bx+si],al
00000A7D  0000              add [bx+si],al
00000A7F  0000              add [bx+si],al
00000A81  0000              add [bx+si],al
00000A83  0000              add [bx+si],al
00000A85  0000              add [bx+si],al
00000A87  0000              add [bx+si],al
00000A89  0000              add [bx+si],al
00000A8B  0000              add [bx+si],al
00000A8D  0000              add [bx+si],al
00000A8F  0000              add [bx+si],al
00000A91  0000              add [bx+si],al
00000A93  0000              add [bx+si],al
00000A95  0000              add [bx+si],al
00000A97  0000              add [bx+si],al
00000A99  0000              add [bx+si],al
00000A9B  0000              add [bx+si],al
00000A9D  0000              add [bx+si],al
00000A9F  0000              add [bx+si],al
00000AA1  0000              add [bx+si],al
00000AA3  0000              add [bx+si],al
00000AA5  0000              add [bx+si],al
00000AA7  0000              add [bx+si],al
00000AA9  0000              add [bx+si],al
00000AAB  0000              add [bx+si],al
00000AAD  0000              add [bx+si],al
00000AAF  0000              add [bx+si],al
00000AB1  0000              add [bx+si],al
00000AB3  0000              add [bx+si],al
00000AB5  0000              add [bx+si],al
00000AB7  0000              add [bx+si],al
00000AB9  0000              add [bx+si],al
00000ABB  0000              add [bx+si],al
00000ABD  0000              add [bx+si],al
00000ABF  0000              add [bx+si],al
00000AC1  0000              add [bx+si],al
00000AC3  0000              add [bx+si],al
00000AC5  0000              add [bx+si],al
00000AC7  0000              add [bx+si],al
00000AC9  0000              add [bx+si],al
00000ACB  0000              add [bx+si],al
00000ACD  0000              add [bx+si],al
00000ACF  0000              add [bx+si],al
00000AD1  0000              add [bx+si],al
00000AD3  0000              add [bx+si],al
00000AD5  0000              add [bx+si],al
00000AD7  0000              add [bx+si],al
00000AD9  0000              add [bx+si],al
00000ADB  0000              add [bx+si],al
00000ADD  0000              add [bx+si],al
00000ADF  0000              add [bx+si],al
00000AE1  0000              add [bx+si],al
00000AE3  0000              add [bx+si],al
00000AE5  0000              add [bx+si],al
00000AE7  0000              add [bx+si],al
00000AE9  0000              add [bx+si],al
00000AEB  0000              add [bx+si],al
00000AED  0000              add [bx+si],al
00000AEF  0000              add [bx+si],al
00000AF1  0000              add [bx+si],al
00000AF3  0000              add [bx+si],al
00000AF5  0000              add [bx+si],al
00000AF7  0000              add [bx+si],al
00000AF9  0000              add [bx+si],al
00000AFB  0000              add [bx+si],al
00000AFD  0000              add [bx+si],al
00000AFF  0000              add [bx+si],al
00000B01  0000              add [bx+si],al
00000B03  0000              add [bx+si],al
00000B05  0000              add [bx+si],al
00000B07  0000              add [bx+si],al
00000B09  0000              add [bx+si],al
00000B0B  0000              add [bx+si],al
00000B0D  0000              add [bx+si],al
00000B0F  0000              add [bx+si],al
00000B11  0000              add [bx+si],al
00000B13  0000              add [bx+si],al
00000B15  0000              add [bx+si],al
00000B17  0000              add [bx+si],al
00000B19  0000              add [bx+si],al
00000B1B  0000              add [bx+si],al
00000B1D  0000              add [bx+si],al
00000B1F  0000              add [bx+si],al
00000B21  0000              add [bx+si],al
00000B23  0000              add [bx+si],al
00000B25  0000              add [bx+si],al
00000B27  0000              add [bx+si],al
00000B29  0000              add [bx+si],al
00000B2B  0000              add [bx+si],al
00000B2D  0000              add [bx+si],al
00000B2F  0000              add [bx+si],al
00000B31  0000              add [bx+si],al
00000B33  0000              add [bx+si],al
00000B35  0000              add [bx+si],al
00000B37  0000              add [bx+si],al
00000B39  0000              add [bx+si],al
00000B3B  0000              add [bx+si],al
00000B3D  0000              add [bx+si],al
00000B3F  0000              add [bx+si],al
00000B41  0000              add [bx+si],al
00000B43  0000              add [bx+si],al
00000B45  0000              add [bx+si],al
00000B47  0000              add [bx+si],al
00000B49  0000              add [bx+si],al
00000B4B  0000              add [bx+si],al
00000B4D  0000              add [bx+si],al
00000B4F  0000              add [bx+si],al
00000B51  0000              add [bx+si],al
00000B53  0000              add [bx+si],al
00000B55  0000              add [bx+si],al
00000B57  0000              add [bx+si],al
00000B59  0000              add [bx+si],al
00000B5B  0000              add [bx+si],al
00000B5D  0000              add [bx+si],al
00000B5F  0000              add [bx+si],al
00000B61  0000              add [bx+si],al
00000B63  0000              add [bx+si],al
00000B65  0000              add [bx+si],al
00000B67  0000              add [bx+si],al
00000B69  0000              add [bx+si],al
00000B6B  0000              add [bx+si],al
00000B6D  0000              add [bx+si],al
00000B6F  0000              add [bx+si],al
00000B71  0000              add [bx+si],al
00000B73  0000              add [bx+si],al
00000B75  0000              add [bx+si],al
00000B77  0000              add [bx+si],al
00000B79  0000              add [bx+si],al
00000B7B  0000              add [bx+si],al
00000B7D  0000              add [bx+si],al
00000B7F  0000              add [bx+si],al
00000B81  0000              add [bx+si],al
00000B83  0000              add [bx+si],al
00000B85  0000              add [bx+si],al
00000B87  0000              add [bx+si],al
00000B89  0000              add [bx+si],al
00000B8B  0000              add [bx+si],al
00000B8D  0000              add [bx+si],al
00000B8F  0000              add [bx+si],al
00000B91  0000              add [bx+si],al
00000B93  0000              add [bx+si],al
00000B95  0000              add [bx+si],al
00000B97  0000              add [bx+si],al
00000B99  0000              add [bx+si],al
00000B9B  0000              add [bx+si],al
00000B9D  0000              add [bx+si],al
00000B9F  0000              add [bx+si],al
00000BA1  0000              add [bx+si],al
00000BA3  0000              add [bx+si],al
00000BA5  0000              add [bx+si],al
00000BA7  0000              add [bx+si],al
00000BA9  0000              add [bx+si],al
00000BAB  0000              add [bx+si],al
00000BAD  0000              add [bx+si],al
00000BAF  0000              add [bx+si],al
00000BB1  0000              add [bx+si],al
00000BB3  0000              add [bx+si],al
00000BB5  0000              add [bx+si],al
00000BB7  0000              add [bx+si],al
00000BB9  0000              add [bx+si],al
00000BBB  0000              add [bx+si],al
00000BBD  0000              add [bx+si],al
00000BBF  0000              add [bx+si],al
00000BC1  0000              add [bx+si],al
00000BC3  0000              add [bx+si],al
00000BC5  0000              add [bx+si],al
00000BC7  0000              add [bx+si],al
00000BC9  0000              add [bx+si],al
00000BCB  0000              add [bx+si],al
00000BCD  0000              add [bx+si],al
00000BCF  0000              add [bx+si],al
00000BD1  0000              add [bx+si],al
00000BD3  0000              add [bx+si],al
00000BD5  0000              add [bx+si],al
00000BD7  0000              add [bx+si],al
00000BD9  0000              add [bx+si],al
00000BDB  0000              add [bx+si],al
00000BDD  0000              add [bx+si],al
00000BDF  0000              add [bx+si],al
00000BE1  0000              add [bx+si],al
00000BE3  0000              add [bx+si],al
00000BE5  0000              add [bx+si],al
00000BE7  0000              add [bx+si],al
00000BE9  0000              add [bx+si],al
00000BEB  0000              add [bx+si],al
00000BED  0000              add [bx+si],al
00000BEF  0000              add [bx+si],al
00000BF1  0000              add [bx+si],al
00000BF3  0000              add [bx+si],al
00000BF5  0000              add [bx+si],al
00000BF7  0000              add [bx+si],al
00000BF9  0000              add [bx+si],al
00000BFB  0000              add [bx+si],al
00000BFD  0000              add [bx+si],al
00000BFF  0000              add [bx+si],al
00000C01  0000              add [bx+si],al
00000C03  0000              add [bx+si],al
00000C05  0000              add [bx+si],al
00000C07  0000              add [bx+si],al
00000C09  0000              add [bx+si],al
00000C0B  0000              add [bx+si],al
00000C0D  0000              add [bx+si],al
00000C0F  0000              add [bx+si],al
00000C11  0000              add [bx+si],al
00000C13  0000              add [bx+si],al
00000C15  0000              add [bx+si],al
00000C17  0000              add [bx+si],al
00000C19  0000              add [bx+si],al
00000C1B  0000              add [bx+si],al
00000C1D  0000              add [bx+si],al
00000C1F  0000              add [bx+si],al
00000C21  0000              add [bx+si],al
00000C23  0000              add [bx+si],al
00000C25  0000              add [bx+si],al
00000C27  0000              add [bx+si],al
00000C29  0000              add [bx+si],al
00000C2B  0000              add [bx+si],al
00000C2D  0000              add [bx+si],al
00000C2F  0000              add [bx+si],al
00000C31  0000              add [bx+si],al
00000C33  0000              add [bx+si],al
00000C35  0000              add [bx+si],al
00000C37  0000              add [bx+si],al
00000C39  0000              add [bx+si],al
00000C3B  0000              add [bx+si],al
00000C3D  0000              add [bx+si],al
00000C3F  0000              add [bx+si],al
00000C41  0000              add [bx+si],al
00000C43  0000              add [bx+si],al
00000C45  0000              add [bx+si],al
00000C47  0000              add [bx+si],al
00000C49  0000              add [bx+si],al
00000C4B  0000              add [bx+si],al
00000C4D  0000              add [bx+si],al
00000C4F  0000              add [bx+si],al
00000C51  0000              add [bx+si],al
00000C53  0000              add [bx+si],al
00000C55  0000              add [bx+si],al
00000C57  0000              add [bx+si],al
00000C59  0000              add [bx+si],al
00000C5B  0000              add [bx+si],al
00000C5D  0000              add [bx+si],al
00000C5F  0000              add [bx+si],al
00000C61  0000              add [bx+si],al
00000C63  0000              add [bx+si],al
00000C65  0000              add [bx+si],al
00000C67  0000              add [bx+si],al
00000C69  0000              add [bx+si],al
00000C6B  0000              add [bx+si],al
00000C6D  0000              add [bx+si],al
00000C6F  0000              add [bx+si],al
00000C71  0000              add [bx+si],al
00000C73  0000              add [bx+si],al
00000C75  0000              add [bx+si],al
00000C77  0000              add [bx+si],al
00000C79  0000              add [bx+si],al
00000C7B  0000              add [bx+si],al
00000C7D  0000              add [bx+si],al
00000C7F  0000              add [bx+si],al
00000C81  0000              add [bx+si],al
00000C83  0000              add [bx+si],al
00000C85  0000              add [bx+si],al
00000C87  0000              add [bx+si],al
00000C89  0000              add [bx+si],al
00000C8B  0000              add [bx+si],al
00000C8D  0000              add [bx+si],al
00000C8F  0000              add [bx+si],al
00000C91  0000              add [bx+si],al
00000C93  0000              add [bx+si],al
00000C95  0000              add [bx+si],al
00000C97  0000              add [bx+si],al
00000C99  0000              add [bx+si],al
00000C9B  0000              add [bx+si],al
00000C9D  0000              add [bx+si],al
00000C9F  0000              add [bx+si],al
00000CA1  0000              add [bx+si],al
00000CA3  0000              add [bx+si],al
00000CA5  0000              add [bx+si],al
00000CA7  0000              add [bx+si],al
00000CA9  0000              add [bx+si],al
00000CAB  0000              add [bx+si],al
00000CAD  0000              add [bx+si],al
00000CAF  0000              add [bx+si],al
00000CB1  0000              add [bx+si],al
00000CB3  0000              add [bx+si],al
00000CB5  0000              add [bx+si],al
00000CB7  0000              add [bx+si],al
00000CB9  0000              add [bx+si],al
00000CBB  0000              add [bx+si],al
00000CBD  0000              add [bx+si],al
00000CBF  0000              add [bx+si],al
00000CC1  0000              add [bx+si],al
00000CC3  0000              add [bx+si],al
00000CC5  0000              add [bx+si],al
00000CC7  0000              add [bx+si],al
00000CC9  0000              add [bx+si],al
00000CCB  0000              add [bx+si],al
00000CCD  0000              add [bx+si],al
00000CCF  0000              add [bx+si],al
00000CD1  0000              add [bx+si],al
00000CD3  0000              add [bx+si],al
00000CD5  0000              add [bx+si],al
00000CD7  0000              add [bx+si],al
00000CD9  0000              add [bx+si],al
00000CDB  0000              add [bx+si],al
00000CDD  0000              add [bx+si],al
00000CDF  0000              add [bx+si],al
00000CE1  0000              add [bx+si],al
00000CE3  0000              add [bx+si],al
00000CE5  0000              add [bx+si],al
00000CE7  0000              add [bx+si],al
00000CE9  0000              add [bx+si],al
00000CEB  0000              add [bx+si],al
00000CED  0000              add [bx+si],al
00000CEF  0000              add [bx+si],al
00000CF1  0000              add [bx+si],al
00000CF3  0000              add [bx+si],al
00000CF5  0000              add [bx+si],al
00000CF7  0000              add [bx+si],al
00000CF9  0000              add [bx+si],al
00000CFB  0000              add [bx+si],al
00000CFD  0000              add [bx+si],al
00000CFF  0000              add [bx+si],al
00000D01  0000              add [bx+si],al
00000D03  0000              add [bx+si],al
00000D05  0000              add [bx+si],al
00000D07  0000              add [bx+si],al
00000D09  0000              add [bx+si],al
00000D0B  0000              add [bx+si],al
00000D0D  0000              add [bx+si],al
00000D0F  0000              add [bx+si],al
00000D11  0000              add [bx+si],al
00000D13  0000              add [bx+si],al
00000D15  0000              add [bx+si],al
00000D17  0000              add [bx+si],al
00000D19  0000              add [bx+si],al
00000D1B  0000              add [bx+si],al
00000D1D  0000              add [bx+si],al
00000D1F  0000              add [bx+si],al
00000D21  0000              add [bx+si],al
00000D23  0000              add [bx+si],al
00000D25  0000              add [bx+si],al
00000D27  0000              add [bx+si],al
00000D29  0000              add [bx+si],al
00000D2B  0000              add [bx+si],al
00000D2D  0000              add [bx+si],al
00000D2F  0000              add [bx+si],al
00000D31  0000              add [bx+si],al
00000D33  0000              add [bx+si],al
00000D35  0000              add [bx+si],al
00000D37  0000              add [bx+si],al
00000D39  0000              add [bx+si],al
00000D3B  0000              add [bx+si],al
00000D3D  0000              add [bx+si],al
00000D3F  0000              add [bx+si],al
00000D41  0000              add [bx+si],al
00000D43  0000              add [bx+si],al
00000D45  0000              add [bx+si],al
00000D47  0000              add [bx+si],al
00000D49  0000              add [bx+si],al
00000D4B  0000              add [bx+si],al
00000D4D  0000              add [bx+si],al
00000D4F  0000              add [bx+si],al
00000D51  0000              add [bx+si],al
00000D53  0000              add [bx+si],al
00000D55  0000              add [bx+si],al
00000D57  0000              add [bx+si],al
00000D59  0000              add [bx+si],al
00000D5B  0000              add [bx+si],al
00000D5D  0000              add [bx+si],al
00000D5F  0000              add [bx+si],al
00000D61  0000              add [bx+si],al
00000D63  0000              add [bx+si],al
00000D65  0000              add [bx+si],al
00000D67  0000              add [bx+si],al
00000D69  0000              add [bx+si],al
00000D6B  0000              add [bx+si],al
00000D6D  0000              add [bx+si],al
00000D6F  0000              add [bx+si],al
00000D71  0000              add [bx+si],al
00000D73  0000              add [bx+si],al
00000D75  0000              add [bx+si],al
00000D77  0000              add [bx+si],al
00000D79  0000              add [bx+si],al
00000D7B  0000              add [bx+si],al
00000D7D  0000              add [bx+si],al
00000D7F  0000              add [bx+si],al
00000D81  0000              add [bx+si],al
00000D83  0000              add [bx+si],al
00000D85  0000              add [bx+si],al
00000D87  0000              add [bx+si],al
00000D89  0000              add [bx+si],al
00000D8B  0000              add [bx+si],al
00000D8D  0000              add [bx+si],al
00000D8F  0000              add [bx+si],al
00000D91  0000              add [bx+si],al
00000D93  0000              add [bx+si],al
00000D95  0000              add [bx+si],al
00000D97  0000              add [bx+si],al
00000D99  0000              add [bx+si],al
00000D9B  0000              add [bx+si],al
00000D9D  0000              add [bx+si],al
00000D9F  0000              add [bx+si],al
00000DA1  0000              add [bx+si],al
00000DA3  0000              add [bx+si],al
00000DA5  0000              add [bx+si],al
00000DA7  0000              add [bx+si],al
00000DA9  0000              add [bx+si],al
00000DAB  0000              add [bx+si],al
00000DAD  0000              add [bx+si],al
00000DAF  0000              add [bx+si],al
00000DB1  0000              add [bx+si],al
00000DB3  0000              add [bx+si],al
00000DB5  0000              add [bx+si],al
00000DB7  0000              add [bx+si],al
00000DB9  0000              add [bx+si],al
00000DBB  0000              add [bx+si],al
00000DBD  0000              add [bx+si],al
00000DBF  0000              add [bx+si],al
00000DC1  0000              add [bx+si],al
00000DC3  0000              add [bx+si],al
00000DC5  0000              add [bx+si],al
00000DC7  0000              add [bx+si],al
00000DC9  0000              add [bx+si],al
00000DCB  0000              add [bx+si],al
00000DCD  0000              add [bx+si],al
00000DCF  0000              add [bx+si],al
00000DD1  0000              add [bx+si],al
00000DD3  0000              add [bx+si],al
00000DD5  0000              add [bx+si],al
00000DD7  0000              add [bx+si],al
00000DD9  0000              add [bx+si],al
00000DDB  0000              add [bx+si],al
00000DDD  0000              add [bx+si],al
00000DDF  0000              add [bx+si],al
00000DE1  0000              add [bx+si],al
00000DE3  0000              add [bx+si],al
00000DE5  0000              add [bx+si],al
00000DE7  0000              add [bx+si],al
00000DE9  0000              add [bx+si],al
00000DEB  0000              add [bx+si],al
00000DED  0000              add [bx+si],al
00000DEF  0000              add [bx+si],al
00000DF1  0000              add [bx+si],al
00000DF3  0000              add [bx+si],al
00000DF5  0000              add [bx+si],al
00000DF7  0000              add [bx+si],al
00000DF9  0000              add [bx+si],al
00000DFB  0000              add [bx+si],al
00000DFD  0000              add [bx+si],al
00000DFF  0000              add [bx+si],al
00000E01  0000              add [bx+si],al
00000E03  0000              add [bx+si],al
00000E05  0000              add [bx+si],al
00000E07  0000              add [bx+si],al
00000E09  0000              add [bx+si],al
00000E0B  0000              add [bx+si],al
00000E0D  0000              add [bx+si],al
00000E0F  0000              add [bx+si],al
00000E11  0000              add [bx+si],al
00000E13  0000              add [bx+si],al
00000E15  0000              add [bx+si],al
00000E17  0000              add [bx+si],al
00000E19  0000              add [bx+si],al
00000E1B  0000              add [bx+si],al
00000E1D  0000              add [bx+si],al
00000E1F  0000              add [bx+si],al
00000E21  0000              add [bx+si],al
00000E23  0000              add [bx+si],al
00000E25  0000              add [bx+si],al
00000E27  0000              add [bx+si],al
00000E29  0000              add [bx+si],al
00000E2B  0000              add [bx+si],al
00000E2D  0000              add [bx+si],al
00000E2F  0000              add [bx+si],al
00000E31  0000              add [bx+si],al
00000E33  0000              add [bx+si],al
00000E35  0000              add [bx+si],al
00000E37  0000              add [bx+si],al
00000E39  0000              add [bx+si],al
00000E3B  0000              add [bx+si],al
00000E3D  0000              add [bx+si],al
00000E3F  0000              add [bx+si],al
00000E41  0000              add [bx+si],al
00000E43  0000              add [bx+si],al
00000E45  0000              add [bx+si],al
00000E47  0000              add [bx+si],al
00000E49  0000              add [bx+si],al
00000E4B  0000              add [bx+si],al
00000E4D  0000              add [bx+si],al
00000E4F  0000              add [bx+si],al
00000E51  0000              add [bx+si],al
00000E53  0000              add [bx+si],al
00000E55  0000              add [bx+si],al
00000E57  0000              add [bx+si],al
00000E59  0000              add [bx+si],al
00000E5B  0000              add [bx+si],al
00000E5D  0000              add [bx+si],al
00000E5F  0000              add [bx+si],al
00000E61  0000              add [bx+si],al
00000E63  0000              add [bx+si],al
00000E65  0000              add [bx+si],al
00000E67  0000              add [bx+si],al
00000E69  0000              add [bx+si],al
00000E6B  0000              add [bx+si],al
00000E6D  0000              add [bx+si],al
00000E6F  0000              add [bx+si],al
00000E71  0000              add [bx+si],al
00000E73  0000              add [bx+si],al
00000E75  0000              add [bx+si],al
00000E77  0000              add [bx+si],al
00000E79  0000              add [bx+si],al
00000E7B  0000              add [bx+si],al
00000E7D  0000              add [bx+si],al
00000E7F  0000              add [bx+si],al
00000E81  0000              add [bx+si],al
00000E83  0000              add [bx+si],al
00000E85  0000              add [bx+si],al
00000E87  0000              add [bx+si],al
00000E89  0000              add [bx+si],al
00000E8B  0000              add [bx+si],al
00000E8D  0000              add [bx+si],al
00000E8F  0000              add [bx+si],al
00000E91  0000              add [bx+si],al
00000E93  0000              add [bx+si],al
00000E95  0000              add [bx+si],al
00000E97  0000              add [bx+si],al
00000E99  0000              add [bx+si],al
00000E9B  0000              add [bx+si],al
00000E9D  0000              add [bx+si],al
00000E9F  0000              add [bx+si],al
00000EA1  0000              add [bx+si],al
00000EA3  0000              add [bx+si],al
00000EA5  0000              add [bx+si],al
00000EA7  0000              add [bx+si],al
00000EA9  0000              add [bx+si],al
00000EAB  0000              add [bx+si],al
00000EAD  0000              add [bx+si],al
00000EAF  0000              add [bx+si],al
00000EB1  0000              add [bx+si],al
00000EB3  0000              add [bx+si],al
00000EB5  0000              add [bx+si],al
00000EB7  0000              add [bx+si],al
00000EB9  0000              add [bx+si],al
00000EBB  0000              add [bx+si],al
00000EBD  0000              add [bx+si],al
00000EBF  0000              add [bx+si],al
00000EC1  0000              add [bx+si],al
00000EC3  0000              add [bx+si],al
00000EC5  0000              add [bx+si],al
00000EC7  0000              add [bx+si],al
00000EC9  0000              add [bx+si],al
00000ECB  0000              add [bx+si],al
00000ECD  0000              add [bx+si],al
00000ECF  0000              add [bx+si],al
00000ED1  0000              add [bx+si],al
00000ED3  0000              add [bx+si],al
00000ED5  0000              add [bx+si],al
00000ED7  0000              add [bx+si],al
00000ED9  0000              add [bx+si],al
00000EDB  0000              add [bx+si],al
00000EDD  0000              add [bx+si],al
00000EDF  0000              add [bx+si],al
00000EE1  0000              add [bx+si],al
00000EE3  0000              add [bx+si],al
00000EE5  0000              add [bx+si],al
00000EE7  0000              add [bx+si],al
00000EE9  0000              add [bx+si],al
00000EEB  0000              add [bx+si],al
00000EED  0000              add [bx+si],al
00000EEF  0000              add [bx+si],al
00000EF1  0000              add [bx+si],al
00000EF3  0000              add [bx+si],al
00000EF5  0000              add [bx+si],al
00000EF7  0000              add [bx+si],al
00000EF9  0000              add [bx+si],al
00000EFB  0000              add [bx+si],al
00000EFD  0000              add [bx+si],al
00000EFF  0000              add [bx+si],al
00000F01  0000              add [bx+si],al
00000F03  0000              add [bx+si],al
00000F05  0000              add [bx+si],al
00000F07  0000              add [bx+si],al
00000F09  0000              add [bx+si],al
00000F0B  0000              add [bx+si],al
00000F0D  0000              add [bx+si],al
00000F0F  0000              add [bx+si],al
00000F11  0000              add [bx+si],al
00000F13  0000              add [bx+si],al
00000F15  0000              add [bx+si],al
00000F17  0000              add [bx+si],al
00000F19  0000              add [bx+si],al
00000F1B  0000              add [bx+si],al
00000F1D  0000              add [bx+si],al
00000F1F  0000              add [bx+si],al
00000F21  0000              add [bx+si],al
00000F23  0000              add [bx+si],al
00000F25  0000              add [bx+si],al
00000F27  0000              add [bx+si],al
00000F29  0000              add [bx+si],al
00000F2B  0000              add [bx+si],al
00000F2D  0000              add [bx+si],al
00000F2F  0000              add [bx+si],al
00000F31  0000              add [bx+si],al
00000F33  0000              add [bx+si],al
00000F35  0000              add [bx+si],al
00000F37  0000              add [bx+si],al
00000F39  0000              add [bx+si],al
00000F3B  0000              add [bx+si],al
00000F3D  0000              add [bx+si],al
00000F3F  0000              add [bx+si],al
00000F41  0000              add [bx+si],al
00000F43  0000              add [bx+si],al
00000F45  0000              add [bx+si],al
00000F47  0000              add [bx+si],al
00000F49  0000              add [bx+si],al
00000F4B  0000              add [bx+si],al
00000F4D  0000              add [bx+si],al
00000F4F  0000              add [bx+si],al
00000F51  0000              add [bx+si],al
00000F53  0000              add [bx+si],al
00000F55  0000              add [bx+si],al
00000F57  0000              add [bx+si],al
00000F59  0000              add [bx+si],al
00000F5B  0000              add [bx+si],al
00000F5D  0000              add [bx+si],al
00000F5F  0000              add [bx+si],al
00000F61  0000              add [bx+si],al
00000F63  0000              add [bx+si],al
00000F65  0000              add [bx+si],al
00000F67  0000              add [bx+si],al
00000F69  0000              add [bx+si],al
00000F6B  0000              add [bx+si],al
00000F6D  0000              add [bx+si],al
00000F6F  0000              add [bx+si],al
00000F71  0000              add [bx+si],al
00000F73  0000              add [bx+si],al
00000F75  0000              add [bx+si],al
00000F77  0000              add [bx+si],al
00000F79  0000              add [bx+si],al
00000F7B  0000              add [bx+si],al
00000F7D  0000              add [bx+si],al
00000F7F  0000              add [bx+si],al
00000F81  0000              add [bx+si],al
00000F83  0000              add [bx+si],al
00000F85  0000              add [bx+si],al
00000F87  0000              add [bx+si],al
00000F89  0000              add [bx+si],al
00000F8B  0000              add [bx+si],al
00000F8D  0000              add [bx+si],al
00000F8F  0000              add [bx+si],al
00000F91  0000              add [bx+si],al
00000F93  0000              add [bx+si],al
00000F95  0000              add [bx+si],al
00000F97  0000              add [bx+si],al
00000F99  0000              add [bx+si],al
00000F9B  0000              add [bx+si],al
00000F9D  0000              add [bx+si],al
00000F9F  0000              add [bx+si],al
00000FA1  0000              add [bx+si],al
00000FA3  0000              add [bx+si],al
00000FA5  0000              add [bx+si],al
00000FA7  0000              add [bx+si],al
00000FA9  0000              add [bx+si],al
00000FAB  0000              add [bx+si],al
00000FAD  0000              add [bx+si],al
00000FAF  0000              add [bx+si],al
00000FB1  0000              add [bx+si],al
00000FB3  0000              add [bx+si],al
00000FB5  0000              add [bx+si],al
00000FB7  0000              add [bx+si],al
00000FB9  0000              add [bx+si],al
00000FBB  0000              add [bx+si],al
00000FBD  0000              add [bx+si],al
00000FBF  0000              add [bx+si],al
00000FC1  0000              add [bx+si],al
00000FC3  0000              add [bx+si],al
00000FC5  0000              add [bx+si],al
00000FC7  0000              add [bx+si],al
00000FC9  0000              add [bx+si],al
00000FCB  0000              add [bx+si],al
00000FCD  0000              add [bx+si],al
00000FCF  0000              add [bx+si],al
00000FD1  0000              add [bx+si],al
00000FD3  0000              add [bx+si],al
00000FD5  0000              add [bx+si],al
00000FD7  0000              add [bx+si],al
00000FD9  0000              add [bx+si],al
00000FDB  0000              add [bx+si],al
00000FDD  0000              add [bx+si],al
00000FDF  0000              add [bx+si],al
00000FE1  0000              add [bx+si],al
00000FE3  0000              add [bx+si],al
00000FE5  0000              add [bx+si],al
00000FE7  0000              add [bx+si],al
00000FE9  0000              add [bx+si],al
00000FEB  0000              add [bx+si],al
00000FED  0000              add [bx+si],al
00000FEF  0000              add [bx+si],al
00000FF1  0000              add [bx+si],al
00000FF3  0000              add [bx+si],al
00000FF5  0000              add [bx+si],al
00000FF7  0000              add [bx+si],al
00000FF9  0000              add [bx+si],al
00000FFB  0000              add [bx+si],al
00000FFD  0000              add [bx+si],al
00000FFF  00F3              add bl,dh
00001001  0F1EFA            hint_nop55 dx
00001004  48                dec ax
00001005  83EC08            sub sp,byte +0x8
00001008  48                dec ax
00001009  8B05              mov ax,[di]
0000100B  C12F00            shr word [bx],byte 0x0
0000100E  004885            add [bx+si-0x7b],cl
00001011  C0                db 0xc0
00001012  7402              jz 0x1016
00001014  FFD0              call ax
00001016  48                dec ax
00001017  83C408            add sp,byte +0x8
0000101A  C3                ret
0000101B  0000              add [bx+si],al
0000101D  0000              add [bx+si],al
0000101F  00FF              add bh,bh
00001021  35CA2F            xor ax,0x2fca
00001024  0000              add [bx+si],al
00001026  FF25              jmp [di]
00001028  CC                int3
00001029  2F                das
0000102A  0000              add [bx+si],al
0000102C  0F1F4000          nop word [bx+si+0x0]
00001030  FF25              jmp [di]
00001032  CA2F00            retf 0x2f
00001035  006800            add [bx+si+0x0],ch
00001038  0000              add [bx+si],al
0000103A  00E9              add cl,ch
0000103C  E0FF              loopne 0x103d
0000103E  FF                db 0xff
0000103F  FFF3              push bx
00001041  0F1EFA            hint_nop55 dx
00001044  31ED              xor bp,bp
00001046  49                dec cx
00001047  89D1              mov cx,dx
00001049  5E                pop si
0000104A  48                dec ax
0000104B  89E2              mov dx,sp
0000104D  48                dec ax
0000104E  83E4F0            and sp,byte -0x10
00001051  50                push ax
00001052  54                push sp
00001053  45                inc bp
00001054  31C0              xor ax,ax
00001056  31C9              xor cx,cx
00001058  48                dec ax
00001059  8D3D              lea di,[di]
0000105B  DA00              fiadd dword [bx+si]
0000105D  0000              add [bx+si],al
0000105F  FF15              call [di]
00001061  5B                pop bx
00001062  2F                das
00001063  0000              add [bx+si],al
00001065  F4                hlt
00001066  662E0F1F840000    nop dword [cs:si+0x0]
0000106D  0000              add [bx+si],al
0000106F  00488D            add [bx+si-0x73],cl
00001072  3DA12F            cmp ax,0x2fa1
00001075  0000              add [bx+si],al
00001077  48                dec ax
00001078  8D05              lea ax,[di]
0000107A  9A2F000048        call 0x4800:0x2f
0000107F  39F8              cmp ax,di
00001081  7415              jz 0x1098
00001083  48                dec ax
00001084  8B05              mov ax,[di]
00001086  3E2F              ds das
00001088  0000              add [bx+si],al
0000108A  48                dec ax
0000108B  85C0              test ax,ax
0000108D  7409              jz 0x1098
0000108F  FFE0              jmp ax
00001091  0F1F800000        nop word [bx+si+0x0]
00001096  0000              add [bx+si],al
00001098  C3                ret
00001099  0F1F800000        nop word [bx+si+0x0]
0000109E  0000              add [bx+si],al
000010A0  48                dec ax
000010A1  8D3D              lea di,[di]
000010A3  712F              jno 0x10d4
000010A5  0000              add [bx+si],al
000010A7  48                dec ax
000010A8  8D35              lea si,[di]
000010AA  6A2F              push byte +0x2f
000010AC  0000              add [bx+si],al
000010AE  48                dec ax
000010AF  29FE              sub si,di
000010B1  48                dec ax
000010B2  89F0              mov ax,si
000010B4  48                dec ax
000010B5  C1EE3F            shr si,byte 0x3f
000010B8  48                dec ax
000010B9  C1F803            sar ax,byte 0x3
000010BC  48                dec ax
000010BD  01C6              add si,ax
000010BF  48                dec ax
000010C0  D1FE              sar si,1
000010C2  7414              jz 0x10d8
000010C4  48                dec ax
000010C5  8B05              mov ax,[di]
000010C7  0D2F00            or ax,0x2f
000010CA  004885            add [bx+si-0x7b],cl
000010CD  C0                db 0xc0
000010CE  7408              jz 0x10d8
000010D0  FFE0              jmp ax
000010D2  660F1F4400        nop dword [si+0x0]
000010D7  00C3              add bl,al
000010D9  0F1F800000        nop word [bx+si+0x0]
000010DE  0000              add [bx+si],al
000010E0  F30F1EFA          endbr64
000010E4  803D2D            cmp byte [di],0x2d
000010E7  2F                das
000010E8  0000              add [bx+si],al
000010EA  007533            add [di+0x33],dh
000010ED  55                push bp
000010EE  48                dec ax
000010EF  833DEA            cmp word [di],byte -0x16
000010F2  2E0000            add [cs:bx+si],al
000010F5  004889            add [bx+si-0x77],cl
000010F8  E574              in ax,0x74
000010FA  0D488B            or ax,0x8b48
000010FD  3D0E2F            cmp ax,0x2f0e
00001100  0000              add [bx+si],al
00001102  FF15              call [di]
00001104  D82E0000          fsubr dword [0x0]
00001108  E863FF            call 0x106e
0000110B  FF                db 0xff
0000110C  FFC6              inc si
0000110E  05042F            add ax,0x2f04
00001111  0000              add [bx+si],al
00001113  015DC3            add [di-0x3d],bx
00001116  662E0F1F840000    nop dword [cs:si+0x0]
0000111D  0000              add [bx+si],al
0000111F  00C3              add bl,al
00001121  66662E0F1F840000  nop dword [cs:si+0x0]
00001129  0000              add [bx+si],al
0000112B  000F              add [bx],cl
0000112D  1F                pop ds
0000112E  40                inc ax
0000112F  00F3              add bl,dh
00001131  0F1EFA            hint_nop55 dx
00001134  E967FF            jmp 0x109e
00001137  FF                db 0xff
00001138  FF5548            call [di+0x48]
0000113B  89E5              mov bp,sp
0000113D  48                dec ax
0000113E  8D05              lea ax,[di]
00001140  C00E000048        ror byte [0x0],byte 0x48
00001145  89C7              mov di,ax
00001147  B80000            mov ax,0x0
0000114A  0000              add [bx+si],al
0000114C  E8DFFE            call 0x102e
0000114F  FF                db 0xff
00001150  FF                db 0xff
00001151  B80000            mov ax,0x0
00001154  0000              add [bx+si],al
00001156  5D                pop bp
00001157  C3                ret
00001158  F30F1EFA          endbr64
0000115C  48                dec ax
0000115D  83EC08            sub sp,byte +0x8
00001160  48                dec ax
00001161  83C408            add sp,byte +0x8
00001164  C3                ret
00001165  0000              add [bx+si],al
00001167  0000              add [bx+si],al
00001169  0000              add [bx+si],al
0000116B  0000              add [bx+si],al
0000116D  0000              add [bx+si],al
0000116F  0000              add [bx+si],al
00001171  0000              add [bx+si],al
00001173  0000              add [bx+si],al
00001175  0000              add [bx+si],al
00001177  0000              add [bx+si],al
00001179  0000              add [bx+si],al
0000117B  0000              add [bx+si],al
0000117D  0000              add [bx+si],al
0000117F  0000              add [bx+si],al
00001181  0000              add [bx+si],al
00001183  0000              add [bx+si],al
00001185  0000              add [bx+si],al
00001187  0000              add [bx+si],al
00001189  0000              add [bx+si],al
0000118B  0000              add [bx+si],al
0000118D  0000              add [bx+si],al
0000118F  0000              add [bx+si],al
00001191  0000              add [bx+si],al
00001193  0000              add [bx+si],al
00001195  0000              add [bx+si],al
00001197  0000              add [bx+si],al
00001199  0000              add [bx+si],al
0000119B  0000              add [bx+si],al
0000119D  0000              add [bx+si],al
0000119F  0000              add [bx+si],al
000011A1  0000              add [bx+si],al
000011A3  0000              add [bx+si],al
000011A5  0000              add [bx+si],al
000011A7  0000              add [bx+si],al
000011A9  0000              add [bx+si],al
000011AB  0000              add [bx+si],al
000011AD  0000              add [bx+si],al
000011AF  0000              add [bx+si],al
000011B1  0000              add [bx+si],al
000011B3  0000              add [bx+si],al
000011B5  0000              add [bx+si],al
000011B7  0000              add [bx+si],al
000011B9  0000              add [bx+si],al
000011BB  0000              add [bx+si],al
000011BD  0000              add [bx+si],al
000011BF  0000              add [bx+si],al
000011C1  0000              add [bx+si],al
000011C3  0000              add [bx+si],al
000011C5  0000              add [bx+si],al
000011C7  0000              add [bx+si],al
000011C9  0000              add [bx+si],al
000011CB  0000              add [bx+si],al
000011CD  0000              add [bx+si],al
000011CF  0000              add [bx+si],al
000011D1  0000              add [bx+si],al
000011D3  0000              add [bx+si],al
000011D5  0000              add [bx+si],al
000011D7  0000              add [bx+si],al
000011D9  0000              add [bx+si],al
000011DB  0000              add [bx+si],al
000011DD  0000              add [bx+si],al
000011DF  0000              add [bx+si],al
000011E1  0000              add [bx+si],al
000011E3  0000              add [bx+si],al
000011E5  0000              add [bx+si],al
000011E7  0000              add [bx+si],al
000011E9  0000              add [bx+si],al
000011EB  0000              add [bx+si],al
000011ED  0000              add [bx+si],al
000011EF  0000              add [bx+si],al
000011F1  0000              add [bx+si],al
000011F3  0000              add [bx+si],al
000011F5  0000              add [bx+si],al
000011F7  0000              add [bx+si],al
000011F9  0000              add [bx+si],al
000011FB  0000              add [bx+si],al
000011FD  0000              add [bx+si],al
000011FF  0000              add [bx+si],al
00001201  0000              add [bx+si],al
00001203  0000              add [bx+si],al
00001205  0000              add [bx+si],al
00001207  0000              add [bx+si],al
00001209  0000              add [bx+si],al
0000120B  0000              add [bx+si],al
0000120D  0000              add [bx+si],al
0000120F  0000              add [bx+si],al
00001211  0000              add [bx+si],al
00001213  0000              add [bx+si],al
00001215  0000              add [bx+si],al
00001217  0000              add [bx+si],al
00001219  0000              add [bx+si],al
0000121B  0000              add [bx+si],al
0000121D  0000              add [bx+si],al
0000121F  0000              add [bx+si],al
00001221  0000              add [bx+si],al
00001223  0000              add [bx+si],al
00001225  0000              add [bx+si],al
00001227  0000              add [bx+si],al
00001229  0000              add [bx+si],al
0000122B  0000              add [bx+si],al
0000122D  0000              add [bx+si],al
0000122F  0000              add [bx+si],al
00001231  0000              add [bx+si],al
00001233  0000              add [bx+si],al
00001235  0000              add [bx+si],al
00001237  0000              add [bx+si],al
00001239  0000              add [bx+si],al
0000123B  0000              add [bx+si],al
0000123D  0000              add [bx+si],al
0000123F  0000              add [bx+si],al
00001241  0000              add [bx+si],al
00001243  0000              add [bx+si],al
00001245  0000              add [bx+si],al
00001247  0000              add [bx+si],al
00001249  0000              add [bx+si],al
0000124B  0000              add [bx+si],al
0000124D  0000              add [bx+si],al
0000124F  0000              add [bx+si],al
00001251  0000              add [bx+si],al
00001253  0000              add [bx+si],al
00001255  0000              add [bx+si],al
00001257  0000              add [bx+si],al
00001259  0000              add [bx+si],al
0000125B  0000              add [bx+si],al
0000125D  0000              add [bx+si],al
0000125F  0000              add [bx+si],al
00001261  0000              add [bx+si],al
00001263  0000              add [bx+si],al
00001265  0000              add [bx+si],al
00001267  0000              add [bx+si],al
00001269  0000              add [bx+si],al
0000126B  0000              add [bx+si],al
0000126D  0000              add [bx+si],al
0000126F  0000              add [bx+si],al
00001271  0000              add [bx+si],al
00001273  0000              add [bx+si],al
00001275  0000              add [bx+si],al
00001277  0000              add [bx+si],al
00001279  0000              add [bx+si],al
0000127B  0000              add [bx+si],al
0000127D  0000              add [bx+si],al
0000127F  0000              add [bx+si],al
00001281  0000              add [bx+si],al
00001283  0000              add [bx+si],al
00001285  0000              add [bx+si],al
00001287  0000              add [bx+si],al
00001289  0000              add [bx+si],al
0000128B  0000              add [bx+si],al
0000128D  0000              add [bx+si],al
0000128F  0000              add [bx+si],al
00001291  0000              add [bx+si],al
00001293  0000              add [bx+si],al
00001295  0000              add [bx+si],al
00001297  0000              add [bx+si],al
00001299  0000              add [bx+si],al
0000129B  0000              add [bx+si],al
0000129D  0000              add [bx+si],al
0000129F  0000              add [bx+si],al
000012A1  0000              add [bx+si],al
000012A3  0000              add [bx+si],al
000012A5  0000              add [bx+si],al
000012A7  0000              add [bx+si],al
000012A9  0000              add [bx+si],al
000012AB  0000              add [bx+si],al
000012AD  0000              add [bx+si],al
000012AF  0000              add [bx+si],al
000012B1  0000              add [bx+si],al
000012B3  0000              add [bx+si],al
000012B5  0000              add [bx+si],al
000012B7  0000              add [bx+si],al
000012B9  0000              add [bx+si],al
000012BB  0000              add [bx+si],al
000012BD  0000              add [bx+si],al
000012BF  0000              add [bx+si],al
000012C1  0000              add [bx+si],al
000012C3  0000              add [bx+si],al
000012C5  0000              add [bx+si],al
000012C7  0000              add [bx+si],al
000012C9  0000              add [bx+si],al
000012CB  0000              add [bx+si],al
000012CD  0000              add [bx+si],al
000012CF  0000              add [bx+si],al
000012D1  0000              add [bx+si],al
000012D3  0000              add [bx+si],al
000012D5  0000              add [bx+si],al
000012D7  0000              add [bx+si],al
000012D9  0000              add [bx+si],al
000012DB  0000              add [bx+si],al
000012DD  0000              add [bx+si],al
000012DF  0000              add [bx+si],al
000012E1  0000              add [bx+si],al
000012E3  0000              add [bx+si],al
000012E5  0000              add [bx+si],al
000012E7  0000              add [bx+si],al
000012E9  0000              add [bx+si],al
000012EB  0000              add [bx+si],al
000012ED  0000              add [bx+si],al
000012EF  0000              add [bx+si],al
000012F1  0000              add [bx+si],al
000012F3  0000              add [bx+si],al
000012F5  0000              add [bx+si],al
000012F7  0000              add [bx+si],al
000012F9  0000              add [bx+si],al
000012FB  0000              add [bx+si],al
000012FD  0000              add [bx+si],al
000012FF  0000              add [bx+si],al
00001301  0000              add [bx+si],al
00001303  0000              add [bx+si],al
00001305  0000              add [bx+si],al
00001307  0000              add [bx+si],al
00001309  0000              add [bx+si],al
0000130B  0000              add [bx+si],al
0000130D  0000              add [bx+si],al
0000130F  0000              add [bx+si],al
00001311  0000              add [bx+si],al
00001313  0000              add [bx+si],al
00001315  0000              add [bx+si],al
00001317  0000              add [bx+si],al
00001319  0000              add [bx+si],al
0000131B  0000              add [bx+si],al
0000131D  0000              add [bx+si],al
0000131F  0000              add [bx+si],al
00001321  0000              add [bx+si],al
00001323  0000              add [bx+si],al
00001325  0000              add [bx+si],al
00001327  0000              add [bx+si],al
00001329  0000              add [bx+si],al
0000132B  0000              add [bx+si],al
0000132D  0000              add [bx+si],al
0000132F  0000              add [bx+si],al
00001331  0000              add [bx+si],al
00001333  0000              add [bx+si],al
00001335  0000              add [bx+si],al
00001337  0000              add [bx+si],al
00001339  0000              add [bx+si],al
0000133B  0000              add [bx+si],al
0000133D  0000              add [bx+si],al
0000133F  0000              add [bx+si],al
00001341  0000              add [bx+si],al
00001343  0000              add [bx+si],al
00001345  0000              add [bx+si],al
00001347  0000              add [bx+si],al
00001349  0000              add [bx+si],al
0000134B  0000              add [bx+si],al
0000134D  0000              add [bx+si],al
0000134F  0000              add [bx+si],al
00001351  0000              add [bx+si],al
00001353  0000              add [bx+si],al
00001355  0000              add [bx+si],al
00001357  0000              add [bx+si],al
00001359  0000              add [bx+si],al
0000135B  0000              add [bx+si],al
0000135D  0000              add [bx+si],al
0000135F  0000              add [bx+si],al
00001361  0000              add [bx+si],al
00001363  0000              add [bx+si],al
00001365  0000              add [bx+si],al
00001367  0000              add [bx+si],al
00001369  0000              add [bx+si],al
0000136B  0000              add [bx+si],al
0000136D  0000              add [bx+si],al
0000136F  0000              add [bx+si],al
00001371  0000              add [bx+si],al
00001373  0000              add [bx+si],al
00001375  0000              add [bx+si],al
00001377  0000              add [bx+si],al
00001379  0000              add [bx+si],al
0000137B  0000              add [bx+si],al
0000137D  0000              add [bx+si],al
0000137F  0000              add [bx+si],al
00001381  0000              add [bx+si],al
00001383  0000              add [bx+si],al
00001385  0000              add [bx+si],al
00001387  0000              add [bx+si],al
00001389  0000              add [bx+si],al
0000138B  0000              add [bx+si],al
0000138D  0000              add [bx+si],al
0000138F  0000              add [bx+si],al
00001391  0000              add [bx+si],al
00001393  0000              add [bx+si],al
00001395  0000              add [bx+si],al
00001397  0000              add [bx+si],al
00001399  0000              add [bx+si],al
0000139B  0000              add [bx+si],al
0000139D  0000              add [bx+si],al
0000139F  0000              add [bx+si],al
000013A1  0000              add [bx+si],al
000013A3  0000              add [bx+si],al
000013A5  0000              add [bx+si],al
000013A7  0000              add [bx+si],al
000013A9  0000              add [bx+si],al
000013AB  0000              add [bx+si],al
000013AD  0000              add [bx+si],al
000013AF  0000              add [bx+si],al
000013B1  0000              add [bx+si],al
000013B3  0000              add [bx+si],al
000013B5  0000              add [bx+si],al
000013B7  0000              add [bx+si],al
000013B9  0000              add [bx+si],al
000013BB  0000              add [bx+si],al
000013BD  0000              add [bx+si],al
000013BF  0000              add [bx+si],al
000013C1  0000              add [bx+si],al
000013C3  0000              add [bx+si],al
000013C5  0000              add [bx+si],al
000013C7  0000              add [bx+si],al
000013C9  0000              add [bx+si],al
000013CB  0000              add [bx+si],al
000013CD  0000              add [bx+si],al
000013CF  0000              add [bx+si],al
000013D1  0000              add [bx+si],al
000013D3  0000              add [bx+si],al
000013D5  0000              add [bx+si],al
000013D7  0000              add [bx+si],al
000013D9  0000              add [bx+si],al
000013DB  0000              add [bx+si],al
000013DD  0000              add [bx+si],al
000013DF  0000              add [bx+si],al
000013E1  0000              add [bx+si],al
000013E3  0000              add [bx+si],al
000013E5  0000              add [bx+si],al
000013E7  0000              add [bx+si],al
000013E9  0000              add [bx+si],al
000013EB  0000              add [bx+si],al
000013ED  0000              add [bx+si],al
000013EF  0000              add [bx+si],al
000013F1  0000              add [bx+si],al
000013F3  0000              add [bx+si],al
000013F5  0000              add [bx+si],al
000013F7  0000              add [bx+si],al
000013F9  0000              add [bx+si],al
000013FB  0000              add [bx+si],al
000013FD  0000              add [bx+si],al
000013FF  0000              add [bx+si],al
00001401  0000              add [bx+si],al
00001403  0000              add [bx+si],al
00001405  0000              add [bx+si],al
00001407  0000              add [bx+si],al
00001409  0000              add [bx+si],al
0000140B  0000              add [bx+si],al
0000140D  0000              add [bx+si],al
0000140F  0000              add [bx+si],al
00001411  0000              add [bx+si],al
00001413  0000              add [bx+si],al
00001415  0000              add [bx+si],al
00001417  0000              add [bx+si],al
00001419  0000              add [bx+si],al
0000141B  0000              add [bx+si],al
0000141D  0000              add [bx+si],al
0000141F  0000              add [bx+si],al
00001421  0000              add [bx+si],al
00001423  0000              add [bx+si],al
00001425  0000              add [bx+si],al
00001427  0000              add [bx+si],al
00001429  0000              add [bx+si],al
0000142B  0000              add [bx+si],al
0000142D  0000              add [bx+si],al
0000142F  0000              add [bx+si],al
00001431  0000              add [bx+si],al
00001433  0000              add [bx+si],al
00001435  0000              add [bx+si],al
00001437  0000              add [bx+si],al
00001439  0000              add [bx+si],al
0000143B  0000              add [bx+si],al
0000143D  0000              add [bx+si],al
0000143F  0000              add [bx+si],al
00001441  0000              add [bx+si],al
00001443  0000              add [bx+si],al
00001445  0000              add [bx+si],al
00001447  0000              add [bx+si],al
00001449  0000              add [bx+si],al
0000144B  0000              add [bx+si],al
0000144D  0000              add [bx+si],al
0000144F  0000              add [bx+si],al
00001451  0000              add [bx+si],al
00001453  0000              add [bx+si],al
00001455  0000              add [bx+si],al
00001457  0000              add [bx+si],al
00001459  0000              add [bx+si],al
0000145B  0000              add [bx+si],al
0000145D  0000              add [bx+si],al
0000145F  0000              add [bx+si],al
00001461  0000              add [bx+si],al
00001463  0000              add [bx+si],al
00001465  0000              add [bx+si],al
00001467  0000              add [bx+si],al
00001469  0000              add [bx+si],al
0000146B  0000              add [bx+si],al
0000146D  0000              add [bx+si],al
0000146F  0000              add [bx+si],al
00001471  0000              add [bx+si],al
00001473  0000              add [bx+si],al
00001475  0000              add [bx+si],al
00001477  0000              add [bx+si],al
00001479  0000              add [bx+si],al
0000147B  0000              add [bx+si],al
0000147D  0000              add [bx+si],al
0000147F  0000              add [bx+si],al
00001481  0000              add [bx+si],al
00001483  0000              add [bx+si],al
00001485  0000              add [bx+si],al
00001487  0000              add [bx+si],al
00001489  0000              add [bx+si],al
0000148B  0000              add [bx+si],al
0000148D  0000              add [bx+si],al
0000148F  0000              add [bx+si],al
00001491  0000              add [bx+si],al
00001493  0000              add [bx+si],al
00001495  0000              add [bx+si],al
00001497  0000              add [bx+si],al
00001499  0000              add [bx+si],al
0000149B  0000              add [bx+si],al
0000149D  0000              add [bx+si],al
0000149F  0000              add [bx+si],al
000014A1  0000              add [bx+si],al
000014A3  0000              add [bx+si],al
000014A5  0000              add [bx+si],al
000014A7  0000              add [bx+si],al
000014A9  0000              add [bx+si],al
000014AB  0000              add [bx+si],al
000014AD  0000              add [bx+si],al
000014AF  0000              add [bx+si],al
000014B1  0000              add [bx+si],al
000014B3  0000              add [bx+si],al
000014B5  0000              add [bx+si],al
000014B7  0000              add [bx+si],al
000014B9  0000              add [bx+si],al
000014BB  0000              add [bx+si],al
000014BD  0000              add [bx+si],al
000014BF  0000              add [bx+si],al
000014C1  0000              add [bx+si],al
000014C3  0000              add [bx+si],al
000014C5  0000              add [bx+si],al
000014C7  0000              add [bx+si],al
000014C9  0000              add [bx+si],al
000014CB  0000              add [bx+si],al
000014CD  0000              add [bx+si],al
000014CF  0000              add [bx+si],al
000014D1  0000              add [bx+si],al
000014D3  0000              add [bx+si],al
000014D5  0000              add [bx+si],al
000014D7  0000              add [bx+si],al
000014D9  0000              add [bx+si],al
000014DB  0000              add [bx+si],al
000014DD  0000              add [bx+si],al
000014DF  0000              add [bx+si],al
000014E1  0000              add [bx+si],al
000014E3  0000              add [bx+si],al
000014E5  0000              add [bx+si],al
000014E7  0000              add [bx+si],al
000014E9  0000              add [bx+si],al
000014EB  0000              add [bx+si],al
000014ED  0000              add [bx+si],al
000014EF  0000              add [bx+si],al
000014F1  0000              add [bx+si],al
000014F3  0000              add [bx+si],al
000014F5  0000              add [bx+si],al
000014F7  0000              add [bx+si],al
000014F9  0000              add [bx+si],al
000014FB  0000              add [bx+si],al
000014FD  0000              add [bx+si],al
000014FF  0000              add [bx+si],al
00001501  0000              add [bx+si],al
00001503  0000              add [bx+si],al
00001505  0000              add [bx+si],al
00001507  0000              add [bx+si],al
00001509  0000              add [bx+si],al
0000150B  0000              add [bx+si],al
0000150D  0000              add [bx+si],al
0000150F  0000              add [bx+si],al
00001511  0000              add [bx+si],al
00001513  0000              add [bx+si],al
00001515  0000              add [bx+si],al
00001517  0000              add [bx+si],al
00001519  0000              add [bx+si],al
0000151B  0000              add [bx+si],al
0000151D  0000              add [bx+si],al
0000151F  0000              add [bx+si],al
00001521  0000              add [bx+si],al
00001523  0000              add [bx+si],al
00001525  0000              add [bx+si],al
00001527  0000              add [bx+si],al
00001529  0000              add [bx+si],al
0000152B  0000              add [bx+si],al
0000152D  0000              add [bx+si],al
0000152F  0000              add [bx+si],al
00001531  0000              add [bx+si],al
00001533  0000              add [bx+si],al
00001535  0000              add [bx+si],al
00001537  0000              add [bx+si],al
00001539  0000              add [bx+si],al
0000153B  0000              add [bx+si],al
0000153D  0000              add [bx+si],al
0000153F  0000              add [bx+si],al
00001541  0000              add [bx+si],al
00001543  0000              add [bx+si],al
00001545  0000              add [bx+si],al
00001547  0000              add [bx+si],al
00001549  0000              add [bx+si],al
0000154B  0000              add [bx+si],al
0000154D  0000              add [bx+si],al
0000154F  0000              add [bx+si],al
00001551  0000              add [bx+si],al
00001553  0000              add [bx+si],al
00001555  0000              add [bx+si],al
00001557  0000              add [bx+si],al
00001559  0000              add [bx+si],al
0000155B  0000              add [bx+si],al
0000155D  0000              add [bx+si],al
0000155F  0000              add [bx+si],al
00001561  0000              add [bx+si],al
00001563  0000              add [bx+si],al
00001565  0000              add [bx+si],al
00001567  0000              add [bx+si],al
00001569  0000              add [bx+si],al
0000156B  0000              add [bx+si],al
0000156D  0000              add [bx+si],al
0000156F  0000              add [bx+si],al
00001571  0000              add [bx+si],al
00001573  0000              add [bx+si],al
00001575  0000              add [bx+si],al
00001577  0000              add [bx+si],al
00001579  0000              add [bx+si],al
0000157B  0000              add [bx+si],al
0000157D  0000              add [bx+si],al
0000157F  0000              add [bx+si],al
00001581  0000              add [bx+si],al
00001583  0000              add [bx+si],al
00001585  0000              add [bx+si],al
00001587  0000              add [bx+si],al
00001589  0000              add [bx+si],al
0000158B  0000              add [bx+si],al
0000158D  0000              add [bx+si],al
0000158F  0000              add [bx+si],al
00001591  0000              add [bx+si],al
00001593  0000              add [bx+si],al
00001595  0000              add [bx+si],al
00001597  0000              add [bx+si],al
00001599  0000              add [bx+si],al
0000159B  0000              add [bx+si],al
0000159D  0000              add [bx+si],al
0000159F  0000              add [bx+si],al
000015A1  0000              add [bx+si],al
000015A3  0000              add [bx+si],al
000015A5  0000              add [bx+si],al
000015A7  0000              add [bx+si],al
000015A9  0000              add [bx+si],al
000015AB  0000              add [bx+si],al
000015AD  0000              add [bx+si],al
000015AF  0000              add [bx+si],al
000015B1  0000              add [bx+si],al
000015B3  0000              add [bx+si],al
000015B5  0000              add [bx+si],al
000015B7  0000              add [bx+si],al
000015B9  0000              add [bx+si],al
000015BB  0000              add [bx+si],al
000015BD  0000              add [bx+si],al
000015BF  0000              add [bx+si],al
000015C1  0000              add [bx+si],al
000015C3  0000              add [bx+si],al
000015C5  0000              add [bx+si],al
000015C7  0000              add [bx+si],al
000015C9  0000              add [bx+si],al
000015CB  0000              add [bx+si],al
000015CD  0000              add [bx+si],al
000015CF  0000              add [bx+si],al
000015D1  0000              add [bx+si],al
000015D3  0000              add [bx+si],al
000015D5  0000              add [bx+si],al
000015D7  0000              add [bx+si],al
000015D9  0000              add [bx+si],al
000015DB  0000              add [bx+si],al
000015DD  0000              add [bx+si],al
000015DF  0000              add [bx+si],al
000015E1  0000              add [bx+si],al
000015E3  0000              add [bx+si],al
000015E5  0000              add [bx+si],al
000015E7  0000              add [bx+si],al
000015E9  0000              add [bx+si],al
000015EB  0000              add [bx+si],al
000015ED  0000              add [bx+si],al
000015EF  0000              add [bx+si],al
000015F1  0000              add [bx+si],al
000015F3  0000              add [bx+si],al
000015F5  0000              add [bx+si],al
000015F7  0000              add [bx+si],al
000015F9  0000              add [bx+si],al
000015FB  0000              add [bx+si],al
000015FD  0000              add [bx+si],al
000015FF  0000              add [bx+si],al
00001601  0000              add [bx+si],al
00001603  0000              add [bx+si],al
00001605  0000              add [bx+si],al
00001607  0000              add [bx+si],al
00001609  0000              add [bx+si],al
0000160B  0000              add [bx+si],al
0000160D  0000              add [bx+si],al
0000160F  0000              add [bx+si],al
00001611  0000              add [bx+si],al
00001613  0000              add [bx+si],al
00001615  0000              add [bx+si],al
00001617  0000              add [bx+si],al
00001619  0000              add [bx+si],al
0000161B  0000              add [bx+si],al
0000161D  0000              add [bx+si],al
0000161F  0000              add [bx+si],al
00001621  0000              add [bx+si],al
00001623  0000              add [bx+si],al
00001625  0000              add [bx+si],al
00001627  0000              add [bx+si],al
00001629  0000              add [bx+si],al
0000162B  0000              add [bx+si],al
0000162D  0000              add [bx+si],al
0000162F  0000              add [bx+si],al
00001631  0000              add [bx+si],al
00001633  0000              add [bx+si],al
00001635  0000              add [bx+si],al
00001637  0000              add [bx+si],al
00001639  0000              add [bx+si],al
0000163B  0000              add [bx+si],al
0000163D  0000              add [bx+si],al
0000163F  0000              add [bx+si],al
00001641  0000              add [bx+si],al
00001643  0000              add [bx+si],al
00001645  0000              add [bx+si],al
00001647  0000              add [bx+si],al
00001649  0000              add [bx+si],al
0000164B  0000              add [bx+si],al
0000164D  0000              add [bx+si],al
0000164F  0000              add [bx+si],al
00001651  0000              add [bx+si],al
00001653  0000              add [bx+si],al
00001655  0000              add [bx+si],al
00001657  0000              add [bx+si],al
00001659  0000              add [bx+si],al
0000165B  0000              add [bx+si],al
0000165D  0000              add [bx+si],al
0000165F  0000              add [bx+si],al
00001661  0000              add [bx+si],al
00001663  0000              add [bx+si],al
00001665  0000              add [bx+si],al
00001667  0000              add [bx+si],al
00001669  0000              add [bx+si],al
0000166B  0000              add [bx+si],al
0000166D  0000              add [bx+si],al
0000166F  0000              add [bx+si],al
00001671  0000              add [bx+si],al
00001673  0000              add [bx+si],al
00001675  0000              add [bx+si],al
00001677  0000              add [bx+si],al
00001679  0000              add [bx+si],al
0000167B  0000              add [bx+si],al
0000167D  0000              add [bx+si],al
0000167F  0000              add [bx+si],al
00001681  0000              add [bx+si],al
00001683  0000              add [bx+si],al
00001685  0000              add [bx+si],al
00001687  0000              add [bx+si],al
00001689  0000              add [bx+si],al
0000168B  0000              add [bx+si],al
0000168D  0000              add [bx+si],al
0000168F  0000              add [bx+si],al
00001691  0000              add [bx+si],al
00001693  0000              add [bx+si],al
00001695  0000              add [bx+si],al
00001697  0000              add [bx+si],al
00001699  0000              add [bx+si],al
0000169B  0000              add [bx+si],al
0000169D  0000              add [bx+si],al
0000169F  0000              add [bx+si],al
000016A1  0000              add [bx+si],al
000016A3  0000              add [bx+si],al
000016A5  0000              add [bx+si],al
000016A7  0000              add [bx+si],al
000016A9  0000              add [bx+si],al
000016AB  0000              add [bx+si],al
000016AD  0000              add [bx+si],al
000016AF  0000              add [bx+si],al
000016B1  0000              add [bx+si],al
000016B3  0000              add [bx+si],al
000016B5  0000              add [bx+si],al
000016B7  0000              add [bx+si],al
000016B9  0000              add [bx+si],al
000016BB  0000              add [bx+si],al
000016BD  0000              add [bx+si],al
000016BF  0000              add [bx+si],al
000016C1  0000              add [bx+si],al
000016C3  0000              add [bx+si],al
000016C5  0000              add [bx+si],al
000016C7  0000              add [bx+si],al
000016C9  0000              add [bx+si],al
000016CB  0000              add [bx+si],al
000016CD  0000              add [bx+si],al
000016CF  0000              add [bx+si],al
000016D1  0000              add [bx+si],al
000016D3  0000              add [bx+si],al
000016D5  0000              add [bx+si],al
000016D7  0000              add [bx+si],al
000016D9  0000              add [bx+si],al
000016DB  0000              add [bx+si],al
000016DD  0000              add [bx+si],al
000016DF  0000              add [bx+si],al
000016E1  0000              add [bx+si],al
000016E3  0000              add [bx+si],al
000016E5  0000              add [bx+si],al
000016E7  0000              add [bx+si],al
000016E9  0000              add [bx+si],al
000016EB  0000              add [bx+si],al
000016ED  0000              add [bx+si],al
000016EF  0000              add [bx+si],al
000016F1  0000              add [bx+si],al
000016F3  0000              add [bx+si],al
000016F5  0000              add [bx+si],al
000016F7  0000              add [bx+si],al
000016F9  0000              add [bx+si],al
000016FB  0000              add [bx+si],al
000016FD  0000              add [bx+si],al
000016FF  0000              add [bx+si],al
00001701  0000              add [bx+si],al
00001703  0000              add [bx+si],al
00001705  0000              add [bx+si],al
00001707  0000              add [bx+si],al
00001709  0000              add [bx+si],al
0000170B  0000              add [bx+si],al
0000170D  0000              add [bx+si],al
0000170F  0000              add [bx+si],al
00001711  0000              add [bx+si],al
00001713  0000              add [bx+si],al
00001715  0000              add [bx+si],al
00001717  0000              add [bx+si],al
00001719  0000              add [bx+si],al
0000171B  0000              add [bx+si],al
0000171D  0000              add [bx+si],al
0000171F  0000              add [bx+si],al
00001721  0000              add [bx+si],al
00001723  0000              add [bx+si],al
00001725  0000              add [bx+si],al
00001727  0000              add [bx+si],al
00001729  0000              add [bx+si],al
0000172B  0000              add [bx+si],al
0000172D  0000              add [bx+si],al
0000172F  0000              add [bx+si],al
00001731  0000              add [bx+si],al
00001733  0000              add [bx+si],al
00001735  0000              add [bx+si],al
00001737  0000              add [bx+si],al
00001739  0000              add [bx+si],al
0000173B  0000              add [bx+si],al
0000173D  0000              add [bx+si],al
0000173F  0000              add [bx+si],al
00001741  0000              add [bx+si],al
00001743  0000              add [bx+si],al
00001745  0000              add [bx+si],al
00001747  0000              add [bx+si],al
00001749  0000              add [bx+si],al
0000174B  0000              add [bx+si],al
0000174D  0000              add [bx+si],al
0000174F  0000              add [bx+si],al
00001751  0000              add [bx+si],al
00001753  0000              add [bx+si],al
00001755  0000              add [bx+si],al
00001757  0000              add [bx+si],al
00001759  0000              add [bx+si],al
0000175B  0000              add [bx+si],al
0000175D  0000              add [bx+si],al
0000175F  0000              add [bx+si],al
00001761  0000              add [bx+si],al
00001763  0000              add [bx+si],al
00001765  0000              add [bx+si],al
00001767  0000              add [bx+si],al
00001769  0000              add [bx+si],al
0000176B  0000              add [bx+si],al
0000176D  0000              add [bx+si],al
0000176F  0000              add [bx+si],al
00001771  0000              add [bx+si],al
00001773  0000              add [bx+si],al
00001775  0000              add [bx+si],al
00001777  0000              add [bx+si],al
00001779  0000              add [bx+si],al
0000177B  0000              add [bx+si],al
0000177D  0000              add [bx+si],al
0000177F  0000              add [bx+si],al
00001781  0000              add [bx+si],al
00001783  0000              add [bx+si],al
00001785  0000              add [bx+si],al
00001787  0000              add [bx+si],al
00001789  0000              add [bx+si],al
0000178B  0000              add [bx+si],al
0000178D  0000              add [bx+si],al
0000178F  0000              add [bx+si],al
00001791  0000              add [bx+si],al
00001793  0000              add [bx+si],al
00001795  0000              add [bx+si],al
00001797  0000              add [bx+si],al
00001799  0000              add [bx+si],al
0000179B  0000              add [bx+si],al
0000179D  0000              add [bx+si],al
0000179F  0000              add [bx+si],al
000017A1  0000              add [bx+si],al
000017A3  0000              add [bx+si],al
000017A5  0000              add [bx+si],al
000017A7  0000              add [bx+si],al
000017A9  0000              add [bx+si],al
000017AB  0000              add [bx+si],al
000017AD  0000              add [bx+si],al
000017AF  0000              add [bx+si],al
000017B1  0000              add [bx+si],al
000017B3  0000              add [bx+si],al
000017B5  0000              add [bx+si],al
000017B7  0000              add [bx+si],al
000017B9  0000              add [bx+si],al
000017BB  0000              add [bx+si],al
000017BD  0000              add [bx+si],al
000017BF  0000              add [bx+si],al
000017C1  0000              add [bx+si],al
000017C3  0000              add [bx+si],al
000017C5  0000              add [bx+si],al
000017C7  0000              add [bx+si],al
000017C9  0000              add [bx+si],al
000017CB  0000              add [bx+si],al
000017CD  0000              add [bx+si],al
000017CF  0000              add [bx+si],al
000017D1  0000              add [bx+si],al
000017D3  0000              add [bx+si],al
000017D5  0000              add [bx+si],al
000017D7  0000              add [bx+si],al
000017D9  0000              add [bx+si],al
000017DB  0000              add [bx+si],al
000017DD  0000              add [bx+si],al
000017DF  0000              add [bx+si],al
000017E1  0000              add [bx+si],al
000017E3  0000              add [bx+si],al
000017E5  0000              add [bx+si],al
000017E7  0000              add [bx+si],al
000017E9  0000              add [bx+si],al
000017EB  0000              add [bx+si],al
000017ED  0000              add [bx+si],al
000017EF  0000              add [bx+si],al
000017F1  0000              add [bx+si],al
000017F3  0000              add [bx+si],al
000017F5  0000              add [bx+si],al
000017F7  0000              add [bx+si],al
000017F9  0000              add [bx+si],al
000017FB  0000              add [bx+si],al
000017FD  0000              add [bx+si],al
000017FF  0000              add [bx+si],al
00001801  0000              add [bx+si],al
00001803  0000              add [bx+si],al
00001805  0000              add [bx+si],al
00001807  0000              add [bx+si],al
00001809  0000              add [bx+si],al
0000180B  0000              add [bx+si],al
0000180D  0000              add [bx+si],al
0000180F  0000              add [bx+si],al
00001811  0000              add [bx+si],al
00001813  0000              add [bx+si],al
00001815  0000              add [bx+si],al
00001817  0000              add [bx+si],al
00001819  0000              add [bx+si],al
0000181B  0000              add [bx+si],al
0000181D  0000              add [bx+si],al
0000181F  0000              add [bx+si],al
00001821  0000              add [bx+si],al
00001823  0000              add [bx+si],al
00001825  0000              add [bx+si],al
00001827  0000              add [bx+si],al
00001829  0000              add [bx+si],al
0000182B  0000              add [bx+si],al
0000182D  0000              add [bx+si],al
0000182F  0000              add [bx+si],al
00001831  0000              add [bx+si],al
00001833  0000              add [bx+si],al
00001835  0000              add [bx+si],al
00001837  0000              add [bx+si],al
00001839  0000              add [bx+si],al
0000183B  0000              add [bx+si],al
0000183D  0000              add [bx+si],al
0000183F  0000              add [bx+si],al
00001841  0000              add [bx+si],al
00001843  0000              add [bx+si],al
00001845  0000              add [bx+si],al
00001847  0000              add [bx+si],al
00001849  0000              add [bx+si],al
0000184B  0000              add [bx+si],al
0000184D  0000              add [bx+si],al
0000184F  0000              add [bx+si],al
00001851  0000              add [bx+si],al
00001853  0000              add [bx+si],al
00001855  0000              add [bx+si],al
00001857  0000              add [bx+si],al
00001859  0000              add [bx+si],al
0000185B  0000              add [bx+si],al
0000185D  0000              add [bx+si],al
0000185F  0000              add [bx+si],al
00001861  0000              add [bx+si],al
00001863  0000              add [bx+si],al
00001865  0000              add [bx+si],al
00001867  0000              add [bx+si],al
00001869  0000              add [bx+si],al
0000186B  0000              add [bx+si],al
0000186D  0000              add [bx+si],al
0000186F  0000              add [bx+si],al
00001871  0000              add [bx+si],al
00001873  0000              add [bx+si],al
00001875  0000              add [bx+si],al
00001877  0000              add [bx+si],al
00001879  0000              add [bx+si],al
0000187B  0000              add [bx+si],al
0000187D  0000              add [bx+si],al
0000187F  0000              add [bx+si],al
00001881  0000              add [bx+si],al
00001883  0000              add [bx+si],al
00001885  0000              add [bx+si],al
00001887  0000              add [bx+si],al
00001889  0000              add [bx+si],al
0000188B  0000              add [bx+si],al
0000188D  0000              add [bx+si],al
0000188F  0000              add [bx+si],al
00001891  0000              add [bx+si],al
00001893  0000              add [bx+si],al
00001895  0000              add [bx+si],al
00001897  0000              add [bx+si],al
00001899  0000              add [bx+si],al
0000189B  0000              add [bx+si],al
0000189D  0000              add [bx+si],al
0000189F  0000              add [bx+si],al
000018A1  0000              add [bx+si],al
000018A3  0000              add [bx+si],al
000018A5  0000              add [bx+si],al
000018A7  0000              add [bx+si],al
000018A9  0000              add [bx+si],al
000018AB  0000              add [bx+si],al
000018AD  0000              add [bx+si],al
000018AF  0000              add [bx+si],al
000018B1  0000              add [bx+si],al
000018B3  0000              add [bx+si],al
000018B5  0000              add [bx+si],al
000018B7  0000              add [bx+si],al
000018B9  0000              add [bx+si],al
000018BB  0000              add [bx+si],al
000018BD  0000              add [bx+si],al
000018BF  0000              add [bx+si],al
000018C1  0000              add [bx+si],al
000018C3  0000              add [bx+si],al
000018C5  0000              add [bx+si],al
000018C7  0000              add [bx+si],al
000018C9  0000              add [bx+si],al
000018CB  0000              add [bx+si],al
000018CD  0000              add [bx+si],al
000018CF  0000              add [bx+si],al
000018D1  0000              add [bx+si],al
000018D3  0000              add [bx+si],al
000018D5  0000              add [bx+si],al
000018D7  0000              add [bx+si],al
000018D9  0000              add [bx+si],al
000018DB  0000              add [bx+si],al
000018DD  0000              add [bx+si],al
000018DF  0000              add [bx+si],al
000018E1  0000              add [bx+si],al
000018E3  0000              add [bx+si],al
000018E5  0000              add [bx+si],al
000018E7  0000              add [bx+si],al
000018E9  0000              add [bx+si],al
000018EB  0000              add [bx+si],al
000018ED  0000              add [bx+si],al
000018EF  0000              add [bx+si],al
000018F1  0000              add [bx+si],al
000018F3  0000              add [bx+si],al
000018F5  0000              add [bx+si],al
000018F7  0000              add [bx+si],al
000018F9  0000              add [bx+si],al
000018FB  0000              add [bx+si],al
000018FD  0000              add [bx+si],al
000018FF  0000              add [bx+si],al
00001901  0000              add [bx+si],al
00001903  0000              add [bx+si],al
00001905  0000              add [bx+si],al
00001907  0000              add [bx+si],al
00001909  0000              add [bx+si],al
0000190B  0000              add [bx+si],al
0000190D  0000              add [bx+si],al
0000190F  0000              add [bx+si],al
00001911  0000              add [bx+si],al
00001913  0000              add [bx+si],al
00001915  0000              add [bx+si],al
00001917  0000              add [bx+si],al
00001919  0000              add [bx+si],al
0000191B  0000              add [bx+si],al
0000191D  0000              add [bx+si],al
0000191F  0000              add [bx+si],al
00001921  0000              add [bx+si],al
00001923  0000              add [bx+si],al
00001925  0000              add [bx+si],al
00001927  0000              add [bx+si],al
00001929  0000              add [bx+si],al
0000192B  0000              add [bx+si],al
0000192D  0000              add [bx+si],al
0000192F  0000              add [bx+si],al
00001931  0000              add [bx+si],al
00001933  0000              add [bx+si],al
00001935  0000              add [bx+si],al
00001937  0000              add [bx+si],al
00001939  0000              add [bx+si],al
0000193B  0000              add [bx+si],al
0000193D  0000              add [bx+si],al
0000193F  0000              add [bx+si],al
00001941  0000              add [bx+si],al
00001943  0000              add [bx+si],al
00001945  0000              add [bx+si],al
00001947  0000              add [bx+si],al
00001949  0000              add [bx+si],al
0000194B  0000              add [bx+si],al
0000194D  0000              add [bx+si],al
0000194F  0000              add [bx+si],al
00001951  0000              add [bx+si],al
00001953  0000              add [bx+si],al
00001955  0000              add [bx+si],al
00001957  0000              add [bx+si],al
00001959  0000              add [bx+si],al
0000195B  0000              add [bx+si],al
0000195D  0000              add [bx+si],al
0000195F  0000              add [bx+si],al
00001961  0000              add [bx+si],al
00001963  0000              add [bx+si],al
00001965  0000              add [bx+si],al
00001967  0000              add [bx+si],al
00001969  0000              add [bx+si],al
0000196B  0000              add [bx+si],al
0000196D  0000              add [bx+si],al
0000196F  0000              add [bx+si],al
00001971  0000              add [bx+si],al
00001973  0000              add [bx+si],al
00001975  0000              add [bx+si],al
00001977  0000              add [bx+si],al
00001979  0000              add [bx+si],al
0000197B  0000              add [bx+si],al
0000197D  0000              add [bx+si],al
0000197F  0000              add [bx+si],al
00001981  0000              add [bx+si],al
00001983  0000              add [bx+si],al
00001985  0000              add [bx+si],al
00001987  0000              add [bx+si],al
00001989  0000              add [bx+si],al
0000198B  0000              add [bx+si],al
0000198D  0000              add [bx+si],al
0000198F  0000              add [bx+si],al
00001991  0000              add [bx+si],al
00001993  0000              add [bx+si],al
00001995  0000              add [bx+si],al
00001997  0000              add [bx+si],al
00001999  0000              add [bx+si],al
0000199B  0000              add [bx+si],al
0000199D  0000              add [bx+si],al
0000199F  0000              add [bx+si],al
000019A1  0000              add [bx+si],al
000019A3  0000              add [bx+si],al
000019A5  0000              add [bx+si],al
000019A7  0000              add [bx+si],al
000019A9  0000              add [bx+si],al
000019AB  0000              add [bx+si],al
000019AD  0000              add [bx+si],al
000019AF  0000              add [bx+si],al
000019B1  0000              add [bx+si],al
000019B3  0000              add [bx+si],al
000019B5  0000              add [bx+si],al
000019B7  0000              add [bx+si],al
000019B9  0000              add [bx+si],al
000019BB  0000              add [bx+si],al
000019BD  0000              add [bx+si],al
000019BF  0000              add [bx+si],al
000019C1  0000              add [bx+si],al
000019C3  0000              add [bx+si],al
000019C5  0000              add [bx+si],al
000019C7  0000              add [bx+si],al
000019C9  0000              add [bx+si],al
000019CB  0000              add [bx+si],al
000019CD  0000              add [bx+si],al
000019CF  0000              add [bx+si],al
000019D1  0000              add [bx+si],al
000019D3  0000              add [bx+si],al
000019D5  0000              add [bx+si],al
000019D7  0000              add [bx+si],al
000019D9  0000              add [bx+si],al
000019DB  0000              add [bx+si],al
000019DD  0000              add [bx+si],al
000019DF  0000              add [bx+si],al
000019E1  0000              add [bx+si],al
000019E3  0000              add [bx+si],al
000019E5  0000              add [bx+si],al
000019E7  0000              add [bx+si],al
000019E9  0000              add [bx+si],al
000019EB  0000              add [bx+si],al
000019ED  0000              add [bx+si],al
000019EF  0000              add [bx+si],al
000019F1  0000              add [bx+si],al
000019F3  0000              add [bx+si],al
000019F5  0000              add [bx+si],al
000019F7  0000              add [bx+si],al
000019F9  0000              add [bx+si],al
000019FB  0000              add [bx+si],al
000019FD  0000              add [bx+si],al
000019FF  0000              add [bx+si],al
00001A01  0000              add [bx+si],al
00001A03  0000              add [bx+si],al
00001A05  0000              add [bx+si],al
00001A07  0000              add [bx+si],al
00001A09  0000              add [bx+si],al
00001A0B  0000              add [bx+si],al
00001A0D  0000              add [bx+si],al
00001A0F  0000              add [bx+si],al
00001A11  0000              add [bx+si],al
00001A13  0000              add [bx+si],al
00001A15  0000              add [bx+si],al
00001A17  0000              add [bx+si],al
00001A19  0000              add [bx+si],al
00001A1B  0000              add [bx+si],al
00001A1D  0000              add [bx+si],al
00001A1F  0000              add [bx+si],al
00001A21  0000              add [bx+si],al
00001A23  0000              add [bx+si],al
00001A25  0000              add [bx+si],al
00001A27  0000              add [bx+si],al
00001A29  0000              add [bx+si],al
00001A2B  0000              add [bx+si],al
00001A2D  0000              add [bx+si],al
00001A2F  0000              add [bx+si],al
00001A31  0000              add [bx+si],al
00001A33  0000              add [bx+si],al
00001A35  0000              add [bx+si],al
00001A37  0000              add [bx+si],al
00001A39  0000              add [bx+si],al
00001A3B  0000              add [bx+si],al
00001A3D  0000              add [bx+si],al
00001A3F  0000              add [bx+si],al
00001A41  0000              add [bx+si],al
00001A43  0000              add [bx+si],al
00001A45  0000              add [bx+si],al
00001A47  0000              add [bx+si],al
00001A49  0000              add [bx+si],al
00001A4B  0000              add [bx+si],al
00001A4D  0000              add [bx+si],al
00001A4F  0000              add [bx+si],al
00001A51  0000              add [bx+si],al
00001A53  0000              add [bx+si],al
00001A55  0000              add [bx+si],al
00001A57  0000              add [bx+si],al
00001A59  0000              add [bx+si],al
00001A5B  0000              add [bx+si],al
00001A5D  0000              add [bx+si],al
00001A5F  0000              add [bx+si],al
00001A61  0000              add [bx+si],al
00001A63  0000              add [bx+si],al
00001A65  0000              add [bx+si],al
00001A67  0000              add [bx+si],al
00001A69  0000              add [bx+si],al
00001A6B  0000              add [bx+si],al
00001A6D  0000              add [bx+si],al
00001A6F  0000              add [bx+si],al
00001A71  0000              add [bx+si],al
00001A73  0000              add [bx+si],al
00001A75  0000              add [bx+si],al
00001A77  0000              add [bx+si],al
00001A79  0000              add [bx+si],al
00001A7B  0000              add [bx+si],al
00001A7D  0000              add [bx+si],al
00001A7F  0000              add [bx+si],al
00001A81  0000              add [bx+si],al
00001A83  0000              add [bx+si],al
00001A85  0000              add [bx+si],al
00001A87  0000              add [bx+si],al
00001A89  0000              add [bx+si],al
00001A8B  0000              add [bx+si],al
00001A8D  0000              add [bx+si],al
00001A8F  0000              add [bx+si],al
00001A91  0000              add [bx+si],al
00001A93  0000              add [bx+si],al
00001A95  0000              add [bx+si],al
00001A97  0000              add [bx+si],al
00001A99  0000              add [bx+si],al
00001A9B  0000              add [bx+si],al
00001A9D  0000              add [bx+si],al
00001A9F  0000              add [bx+si],al
00001AA1  0000              add [bx+si],al
00001AA3  0000              add [bx+si],al
00001AA5  0000              add [bx+si],al
00001AA7  0000              add [bx+si],al
00001AA9  0000              add [bx+si],al
00001AAB  0000              add [bx+si],al
00001AAD  0000              add [bx+si],al
00001AAF  0000              add [bx+si],al
00001AB1  0000              add [bx+si],al
00001AB3  0000              add [bx+si],al
00001AB5  0000              add [bx+si],al
00001AB7  0000              add [bx+si],al
00001AB9  0000              add [bx+si],al
00001ABB  0000              add [bx+si],al
00001ABD  0000              add [bx+si],al
00001ABF  0000              add [bx+si],al
00001AC1  0000              add [bx+si],al
00001AC3  0000              add [bx+si],al
00001AC5  0000              add [bx+si],al
00001AC7  0000              add [bx+si],al
00001AC9  0000              add [bx+si],al
00001ACB  0000              add [bx+si],al
00001ACD  0000              add [bx+si],al
00001ACF  0000              add [bx+si],al
00001AD1  0000              add [bx+si],al
00001AD3  0000              add [bx+si],al
00001AD5  0000              add [bx+si],al
00001AD7  0000              add [bx+si],al
00001AD9  0000              add [bx+si],al
00001ADB  0000              add [bx+si],al
00001ADD  0000              add [bx+si],al
00001ADF  0000              add [bx+si],al
00001AE1  0000              add [bx+si],al
00001AE3  0000              add [bx+si],al
00001AE5  0000              add [bx+si],al
00001AE7  0000              add [bx+si],al
00001AE9  0000              add [bx+si],al
00001AEB  0000              add [bx+si],al
00001AED  0000              add [bx+si],al
00001AEF  0000              add [bx+si],al
00001AF1  0000              add [bx+si],al
00001AF3  0000              add [bx+si],al
00001AF5  0000              add [bx+si],al
00001AF7  0000              add [bx+si],al
00001AF9  0000              add [bx+si],al
00001AFB  0000              add [bx+si],al
00001AFD  0000              add [bx+si],al
00001AFF  0000              add [bx+si],al
00001B01  0000              add [bx+si],al
00001B03  0000              add [bx+si],al
00001B05  0000              add [bx+si],al
00001B07  0000              add [bx+si],al
00001B09  0000              add [bx+si],al
00001B0B  0000              add [bx+si],al
00001B0D  0000              add [bx+si],al
00001B0F  0000              add [bx+si],al
00001B11  0000              add [bx+si],al
00001B13  0000              add [bx+si],al
00001B15  0000              add [bx+si],al
00001B17  0000              add [bx+si],al
00001B19  0000              add [bx+si],al
00001B1B  0000              add [bx+si],al
00001B1D  0000              add [bx+si],al
00001B1F  0000              add [bx+si],al
00001B21  0000              add [bx+si],al
00001B23  0000              add [bx+si],al
00001B25  0000              add [bx+si],al
00001B27  0000              add [bx+si],al
00001B29  0000              add [bx+si],al
00001B2B  0000              add [bx+si],al
00001B2D  0000              add [bx+si],al
00001B2F  0000              add [bx+si],al
00001B31  0000              add [bx+si],al
00001B33  0000              add [bx+si],al
00001B35  0000              add [bx+si],al
00001B37  0000              add [bx+si],al
00001B39  0000              add [bx+si],al
00001B3B  0000              add [bx+si],al
00001B3D  0000              add [bx+si],al
00001B3F  0000              add [bx+si],al
00001B41  0000              add [bx+si],al
00001B43  0000              add [bx+si],al
00001B45  0000              add [bx+si],al
00001B47  0000              add [bx+si],al
00001B49  0000              add [bx+si],al
00001B4B  0000              add [bx+si],al
00001B4D  0000              add [bx+si],al
00001B4F  0000              add [bx+si],al
00001B51  0000              add [bx+si],al
00001B53  0000              add [bx+si],al
00001B55  0000              add [bx+si],al
00001B57  0000              add [bx+si],al
00001B59  0000              add [bx+si],al
00001B5B  0000              add [bx+si],al
00001B5D  0000              add [bx+si],al
00001B5F  0000              add [bx+si],al
00001B61  0000              add [bx+si],al
00001B63  0000              add [bx+si],al
00001B65  0000              add [bx+si],al
00001B67  0000              add [bx+si],al
00001B69  0000              add [bx+si],al
00001B6B  0000              add [bx+si],al
00001B6D  0000              add [bx+si],al
00001B6F  0000              add [bx+si],al
00001B71  0000              add [bx+si],al
00001B73  0000              add [bx+si],al
00001B75  0000              add [bx+si],al
00001B77  0000              add [bx+si],al
00001B79  0000              add [bx+si],al
00001B7B  0000              add [bx+si],al
00001B7D  0000              add [bx+si],al
00001B7F  0000              add [bx+si],al
00001B81  0000              add [bx+si],al
00001B83  0000              add [bx+si],al
00001B85  0000              add [bx+si],al
00001B87  0000              add [bx+si],al
00001B89  0000              add [bx+si],al
00001B8B  0000              add [bx+si],al
00001B8D  0000              add [bx+si],al
00001B8F  0000              add [bx+si],al
00001B91  0000              add [bx+si],al
00001B93  0000              add [bx+si],al
00001B95  0000              add [bx+si],al
00001B97  0000              add [bx+si],al
00001B99  0000              add [bx+si],al
00001B9B  0000              add [bx+si],al
00001B9D  0000              add [bx+si],al
00001B9F  0000              add [bx+si],al
00001BA1  0000              add [bx+si],al
00001BA3  0000              add [bx+si],al
00001BA5  0000              add [bx+si],al
00001BA7  0000              add [bx+si],al
00001BA9  0000              add [bx+si],al
00001BAB  0000              add [bx+si],al
00001BAD  0000              add [bx+si],al
00001BAF  0000              add [bx+si],al
00001BB1  0000              add [bx+si],al
00001BB3  0000              add [bx+si],al
00001BB5  0000              add [bx+si],al
00001BB7  0000              add [bx+si],al
00001BB9  0000              add [bx+si],al
00001BBB  0000              add [bx+si],al
00001BBD  0000              add [bx+si],al
00001BBF  0000              add [bx+si],al
00001BC1  0000              add [bx+si],al
00001BC3  0000              add [bx+si],al
00001BC5  0000              add [bx+si],al
00001BC7  0000              add [bx+si],al
00001BC9  0000              add [bx+si],al
00001BCB  0000              add [bx+si],al
00001BCD  0000              add [bx+si],al
00001BCF  0000              add [bx+si],al
00001BD1  0000              add [bx+si],al
00001BD3  0000              add [bx+si],al
00001BD5  0000              add [bx+si],al
00001BD7  0000              add [bx+si],al
00001BD9  0000              add [bx+si],al
00001BDB  0000              add [bx+si],al
00001BDD  0000              add [bx+si],al
00001BDF  0000              add [bx+si],al
00001BE1  0000              add [bx+si],al
00001BE3  0000              add [bx+si],al
00001BE5  0000              add [bx+si],al
00001BE7  0000              add [bx+si],al
00001BE9  0000              add [bx+si],al
00001BEB  0000              add [bx+si],al
00001BED  0000              add [bx+si],al
00001BEF  0000              add [bx+si],al
00001BF1  0000              add [bx+si],al
00001BF3  0000              add [bx+si],al
00001BF5  0000              add [bx+si],al
00001BF7  0000              add [bx+si],al
00001BF9  0000              add [bx+si],al
00001BFB  0000              add [bx+si],al
00001BFD  0000              add [bx+si],al
00001BFF  0000              add [bx+si],al
00001C01  0000              add [bx+si],al
00001C03  0000              add [bx+si],al
00001C05  0000              add [bx+si],al
00001C07  0000              add [bx+si],al
00001C09  0000              add [bx+si],al
00001C0B  0000              add [bx+si],al
00001C0D  0000              add [bx+si],al
00001C0F  0000              add [bx+si],al
00001C11  0000              add [bx+si],al
00001C13  0000              add [bx+si],al
00001C15  0000              add [bx+si],al
00001C17  0000              add [bx+si],al
00001C19  0000              add [bx+si],al
00001C1B  0000              add [bx+si],al
00001C1D  0000              add [bx+si],al
00001C1F  0000              add [bx+si],al
00001C21  0000              add [bx+si],al
00001C23  0000              add [bx+si],al
00001C25  0000              add [bx+si],al
00001C27  0000              add [bx+si],al
00001C29  0000              add [bx+si],al
00001C2B  0000              add [bx+si],al
00001C2D  0000              add [bx+si],al
00001C2F  0000              add [bx+si],al
00001C31  0000              add [bx+si],al
00001C33  0000              add [bx+si],al
00001C35  0000              add [bx+si],al
00001C37  0000              add [bx+si],al
00001C39  0000              add [bx+si],al
00001C3B  0000              add [bx+si],al
00001C3D  0000              add [bx+si],al
00001C3F  0000              add [bx+si],al
00001C41  0000              add [bx+si],al
00001C43  0000              add [bx+si],al
00001C45  0000              add [bx+si],al
00001C47  0000              add [bx+si],al
00001C49  0000              add [bx+si],al
00001C4B  0000              add [bx+si],al
00001C4D  0000              add [bx+si],al
00001C4F  0000              add [bx+si],al
00001C51  0000              add [bx+si],al
00001C53  0000              add [bx+si],al
00001C55  0000              add [bx+si],al
00001C57  0000              add [bx+si],al
00001C59  0000              add [bx+si],al
00001C5B  0000              add [bx+si],al
00001C5D  0000              add [bx+si],al
00001C5F  0000              add [bx+si],al
00001C61  0000              add [bx+si],al
00001C63  0000              add [bx+si],al
00001C65  0000              add [bx+si],al
00001C67  0000              add [bx+si],al
00001C69  0000              add [bx+si],al
00001C6B  0000              add [bx+si],al
00001C6D  0000              add [bx+si],al
00001C6F  0000              add [bx+si],al
00001C71  0000              add [bx+si],al
00001C73  0000              add [bx+si],al
00001C75  0000              add [bx+si],al
00001C77  0000              add [bx+si],al
00001C79  0000              add [bx+si],al
00001C7B  0000              add [bx+si],al
00001C7D  0000              add [bx+si],al
00001C7F  0000              add [bx+si],al
00001C81  0000              add [bx+si],al
00001C83  0000              add [bx+si],al
00001C85  0000              add [bx+si],al
00001C87  0000              add [bx+si],al
00001C89  0000              add [bx+si],al
00001C8B  0000              add [bx+si],al
00001C8D  0000              add [bx+si],al
00001C8F  0000              add [bx+si],al
00001C91  0000              add [bx+si],al
00001C93  0000              add [bx+si],al
00001C95  0000              add [bx+si],al
00001C97  0000              add [bx+si],al
00001C99  0000              add [bx+si],al
00001C9B  0000              add [bx+si],al
00001C9D  0000              add [bx+si],al
00001C9F  0000              add [bx+si],al
00001CA1  0000              add [bx+si],al
00001CA3  0000              add [bx+si],al
00001CA5  0000              add [bx+si],al
00001CA7  0000              add [bx+si],al
00001CA9  0000              add [bx+si],al
00001CAB  0000              add [bx+si],al
00001CAD  0000              add [bx+si],al
00001CAF  0000              add [bx+si],al
00001CB1  0000              add [bx+si],al
00001CB3  0000              add [bx+si],al
00001CB5  0000              add [bx+si],al
00001CB7  0000              add [bx+si],al
00001CB9  0000              add [bx+si],al
00001CBB  0000              add [bx+si],al
00001CBD  0000              add [bx+si],al
00001CBF  0000              add [bx+si],al
00001CC1  0000              add [bx+si],al
00001CC3  0000              add [bx+si],al
00001CC5  0000              add [bx+si],al
00001CC7  0000              add [bx+si],al
00001CC9  0000              add [bx+si],al
00001CCB  0000              add [bx+si],al
00001CCD  0000              add [bx+si],al
00001CCF  0000              add [bx+si],al
00001CD1  0000              add [bx+si],al
00001CD3  0000              add [bx+si],al
00001CD5  0000              add [bx+si],al
00001CD7  0000              add [bx+si],al
00001CD9  0000              add [bx+si],al
00001CDB  0000              add [bx+si],al
00001CDD  0000              add [bx+si],al
00001CDF  0000              add [bx+si],al
00001CE1  0000              add [bx+si],al
00001CE3  0000              add [bx+si],al
00001CE5  0000              add [bx+si],al
00001CE7  0000              add [bx+si],al
00001CE9  0000              add [bx+si],al
00001CEB  0000              add [bx+si],al
00001CED  0000              add [bx+si],al
00001CEF  0000              add [bx+si],al
00001CF1  0000              add [bx+si],al
00001CF3  0000              add [bx+si],al
00001CF5  0000              add [bx+si],al
00001CF7  0000              add [bx+si],al
00001CF9  0000              add [bx+si],al
00001CFB  0000              add [bx+si],al
00001CFD  0000              add [bx+si],al
00001CFF  0000              add [bx+si],al
00001D01  0000              add [bx+si],al
00001D03  0000              add [bx+si],al
00001D05  0000              add [bx+si],al
00001D07  0000              add [bx+si],al
00001D09  0000              add [bx+si],al
00001D0B  0000              add [bx+si],al
00001D0D  0000              add [bx+si],al
00001D0F  0000              add [bx+si],al
00001D11  0000              add [bx+si],al
00001D13  0000              add [bx+si],al
00001D15  0000              add [bx+si],al
00001D17  0000              add [bx+si],al
00001D19  0000              add [bx+si],al
00001D1B  0000              add [bx+si],al
00001D1D  0000              add [bx+si],al
00001D1F  0000              add [bx+si],al
00001D21  0000              add [bx+si],al
00001D23  0000              add [bx+si],al
00001D25  0000              add [bx+si],al
00001D27  0000              add [bx+si],al
00001D29  0000              add [bx+si],al
00001D2B  0000              add [bx+si],al
00001D2D  0000              add [bx+si],al
00001D2F  0000              add [bx+si],al
00001D31  0000              add [bx+si],al
00001D33  0000              add [bx+si],al
00001D35  0000              add [bx+si],al
00001D37  0000              add [bx+si],al
00001D39  0000              add [bx+si],al
00001D3B  0000              add [bx+si],al
00001D3D  0000              add [bx+si],al
00001D3F  0000              add [bx+si],al
00001D41  0000              add [bx+si],al
00001D43  0000              add [bx+si],al
00001D45  0000              add [bx+si],al
00001D47  0000              add [bx+si],al
00001D49  0000              add [bx+si],al
00001D4B  0000              add [bx+si],al
00001D4D  0000              add [bx+si],al
00001D4F  0000              add [bx+si],al
00001D51  0000              add [bx+si],al
00001D53  0000              add [bx+si],al
00001D55  0000              add [bx+si],al
00001D57  0000              add [bx+si],al
00001D59  0000              add [bx+si],al
00001D5B  0000              add [bx+si],al
00001D5D  0000              add [bx+si],al
00001D5F  0000              add [bx+si],al
00001D61  0000              add [bx+si],al
00001D63  0000              add [bx+si],al
00001D65  0000              add [bx+si],al
00001D67  0000              add [bx+si],al
00001D69  0000              add [bx+si],al
00001D6B  0000              add [bx+si],al
00001D6D  0000              add [bx+si],al
00001D6F  0000              add [bx+si],al
00001D71  0000              add [bx+si],al
00001D73  0000              add [bx+si],al
00001D75  0000              add [bx+si],al
00001D77  0000              add [bx+si],al
00001D79  0000              add [bx+si],al
00001D7B  0000              add [bx+si],al
00001D7D  0000              add [bx+si],al
00001D7F  0000              add [bx+si],al
00001D81  0000              add [bx+si],al
00001D83  0000              add [bx+si],al
00001D85  0000              add [bx+si],al
00001D87  0000              add [bx+si],al
00001D89  0000              add [bx+si],al
00001D8B  0000              add [bx+si],al
00001D8D  0000              add [bx+si],al
00001D8F  0000              add [bx+si],al
00001D91  0000              add [bx+si],al
00001D93  0000              add [bx+si],al
00001D95  0000              add [bx+si],al
00001D97  0000              add [bx+si],al
00001D99  0000              add [bx+si],al
00001D9B  0000              add [bx+si],al
00001D9D  0000              add [bx+si],al
00001D9F  0000              add [bx+si],al
00001DA1  0000              add [bx+si],al
00001DA3  0000              add [bx+si],al
00001DA5  0000              add [bx+si],al
00001DA7  0000              add [bx+si],al
00001DA9  0000              add [bx+si],al
00001DAB  0000              add [bx+si],al
00001DAD  0000              add [bx+si],al
00001DAF  0000              add [bx+si],al
00001DB1  0000              add [bx+si],al
00001DB3  0000              add [bx+si],al
00001DB5  0000              add [bx+si],al
00001DB7  0000              add [bx+si],al
00001DB9  0000              add [bx+si],al
00001DBB  0000              add [bx+si],al
00001DBD  0000              add [bx+si],al
00001DBF  0000              add [bx+si],al
00001DC1  0000              add [bx+si],al
00001DC3  0000              add [bx+si],al
00001DC5  0000              add [bx+si],al
00001DC7  0000              add [bx+si],al
00001DC9  0000              add [bx+si],al
00001DCB  0000              add [bx+si],al
00001DCD  0000              add [bx+si],al
00001DCF  0000              add [bx+si],al
00001DD1  0000              add [bx+si],al
00001DD3  0000              add [bx+si],al
00001DD5  0000              add [bx+si],al
00001DD7  0000              add [bx+si],al
00001DD9  0000              add [bx+si],al
00001DDB  0000              add [bx+si],al
00001DDD  0000              add [bx+si],al
00001DDF  0000              add [bx+si],al
00001DE1  0000              add [bx+si],al
00001DE3  0000              add [bx+si],al
00001DE5  0000              add [bx+si],al
00001DE7  0000              add [bx+si],al
00001DE9  0000              add [bx+si],al
00001DEB  0000              add [bx+si],al
00001DED  0000              add [bx+si],al
00001DEF  0000              add [bx+si],al
00001DF1  0000              add [bx+si],al
00001DF3  0000              add [bx+si],al
00001DF5  0000              add [bx+si],al
00001DF7  0000              add [bx+si],al
00001DF9  0000              add [bx+si],al
00001DFB  0000              add [bx+si],al
00001DFD  0000              add [bx+si],al
00001DFF  0000              add [bx+si],al
00001E01  0000              add [bx+si],al
00001E03  0000              add [bx+si],al
00001E05  0000              add [bx+si],al
00001E07  0000              add [bx+si],al
00001E09  0000              add [bx+si],al
00001E0B  0000              add [bx+si],al
00001E0D  0000              add [bx+si],al
00001E0F  0000              add [bx+si],al
00001E11  0000              add [bx+si],al
00001E13  0000              add [bx+si],al
00001E15  0000              add [bx+si],al
00001E17  0000              add [bx+si],al
00001E19  0000              add [bx+si],al
00001E1B  0000              add [bx+si],al
00001E1D  0000              add [bx+si],al
00001E1F  0000              add [bx+si],al
00001E21  0000              add [bx+si],al
00001E23  0000              add [bx+si],al
00001E25  0000              add [bx+si],al
00001E27  0000              add [bx+si],al
00001E29  0000              add [bx+si],al
00001E2B  0000              add [bx+si],al
00001E2D  0000              add [bx+si],al
00001E2F  0000              add [bx+si],al
00001E31  0000              add [bx+si],al
00001E33  0000              add [bx+si],al
00001E35  0000              add [bx+si],al
00001E37  0000              add [bx+si],al
00001E39  0000              add [bx+si],al
00001E3B  0000              add [bx+si],al
00001E3D  0000              add [bx+si],al
00001E3F  0000              add [bx+si],al
00001E41  0000              add [bx+si],al
00001E43  0000              add [bx+si],al
00001E45  0000              add [bx+si],al
00001E47  0000              add [bx+si],al
00001E49  0000              add [bx+si],al
00001E4B  0000              add [bx+si],al
00001E4D  0000              add [bx+si],al
00001E4F  0000              add [bx+si],al
00001E51  0000              add [bx+si],al
00001E53  0000              add [bx+si],al
00001E55  0000              add [bx+si],al
00001E57  0000              add [bx+si],al
00001E59  0000              add [bx+si],al
00001E5B  0000              add [bx+si],al
00001E5D  0000              add [bx+si],al
00001E5F  0000              add [bx+si],al
00001E61  0000              add [bx+si],al
00001E63  0000              add [bx+si],al
00001E65  0000              add [bx+si],al
00001E67  0000              add [bx+si],al
00001E69  0000              add [bx+si],al
00001E6B  0000              add [bx+si],al
00001E6D  0000              add [bx+si],al
00001E6F  0000              add [bx+si],al
00001E71  0000              add [bx+si],al
00001E73  0000              add [bx+si],al
00001E75  0000              add [bx+si],al
00001E77  0000              add [bx+si],al
00001E79  0000              add [bx+si],al
00001E7B  0000              add [bx+si],al
00001E7D  0000              add [bx+si],al
00001E7F  0000              add [bx+si],al
00001E81  0000              add [bx+si],al
00001E83  0000              add [bx+si],al
00001E85  0000              add [bx+si],al
00001E87  0000              add [bx+si],al
00001E89  0000              add [bx+si],al
00001E8B  0000              add [bx+si],al
00001E8D  0000              add [bx+si],al
00001E8F  0000              add [bx+si],al
00001E91  0000              add [bx+si],al
00001E93  0000              add [bx+si],al
00001E95  0000              add [bx+si],al
00001E97  0000              add [bx+si],al
00001E99  0000              add [bx+si],al
00001E9B  0000              add [bx+si],al
00001E9D  0000              add [bx+si],al
00001E9F  0000              add [bx+si],al
00001EA1  0000              add [bx+si],al
00001EA3  0000              add [bx+si],al
00001EA5  0000              add [bx+si],al
00001EA7  0000              add [bx+si],al
00001EA9  0000              add [bx+si],al
00001EAB  0000              add [bx+si],al
00001EAD  0000              add [bx+si],al
00001EAF  0000              add [bx+si],al
00001EB1  0000              add [bx+si],al
00001EB3  0000              add [bx+si],al
00001EB5  0000              add [bx+si],al
00001EB7  0000              add [bx+si],al
00001EB9  0000              add [bx+si],al
00001EBB  0000              add [bx+si],al
00001EBD  0000              add [bx+si],al
00001EBF  0000              add [bx+si],al
00001EC1  0000              add [bx+si],al
00001EC3  0000              add [bx+si],al
00001EC5  0000              add [bx+si],al
00001EC7  0000              add [bx+si],al
00001EC9  0000              add [bx+si],al
00001ECB  0000              add [bx+si],al
00001ECD  0000              add [bx+si],al
00001ECF  0000              add [bx+si],al
00001ED1  0000              add [bx+si],al
00001ED3  0000              add [bx+si],al
00001ED5  0000              add [bx+si],al
00001ED7  0000              add [bx+si],al
00001ED9  0000              add [bx+si],al
00001EDB  0000              add [bx+si],al
00001EDD  0000              add [bx+si],al
00001EDF  0000              add [bx+si],al
00001EE1  0000              add [bx+si],al
00001EE3  0000              add [bx+si],al
00001EE5  0000              add [bx+si],al
00001EE7  0000              add [bx+si],al
00001EE9  0000              add [bx+si],al
00001EEB  0000              add [bx+si],al
00001EED  0000              add [bx+si],al
00001EEF  0000              add [bx+si],al
00001EF1  0000              add [bx+si],al
00001EF3  0000              add [bx+si],al
00001EF5  0000              add [bx+si],al
00001EF7  0000              add [bx+si],al
00001EF9  0000              add [bx+si],al
00001EFB  0000              add [bx+si],al
00001EFD  0000              add [bx+si],al
00001EFF  0000              add [bx+si],al
00001F01  0000              add [bx+si],al
00001F03  0000              add [bx+si],al
00001F05  0000              add [bx+si],al
00001F07  0000              add [bx+si],al
00001F09  0000              add [bx+si],al
00001F0B  0000              add [bx+si],al
00001F0D  0000              add [bx+si],al
00001F0F  0000              add [bx+si],al
00001F11  0000              add [bx+si],al
00001F13  0000              add [bx+si],al
00001F15  0000              add [bx+si],al
00001F17  0000              add [bx+si],al
00001F19  0000              add [bx+si],al
00001F1B  0000              add [bx+si],al
00001F1D  0000              add [bx+si],al
00001F1F  0000              add [bx+si],al
00001F21  0000              add [bx+si],al
00001F23  0000              add [bx+si],al
00001F25  0000              add [bx+si],al
00001F27  0000              add [bx+si],al
00001F29  0000              add [bx+si],al
00001F2B  0000              add [bx+si],al
00001F2D  0000              add [bx+si],al
00001F2F  0000              add [bx+si],al
00001F31  0000              add [bx+si],al
00001F33  0000              add [bx+si],al
00001F35  0000              add [bx+si],al
00001F37  0000              add [bx+si],al
00001F39  0000              add [bx+si],al
00001F3B  0000              add [bx+si],al
00001F3D  0000              add [bx+si],al
00001F3F  0000              add [bx+si],al
00001F41  0000              add [bx+si],al
00001F43  0000              add [bx+si],al
00001F45  0000              add [bx+si],al
00001F47  0000              add [bx+si],al
00001F49  0000              add [bx+si],al
00001F4B  0000              add [bx+si],al
00001F4D  0000              add [bx+si],al
00001F4F  0000              add [bx+si],al
00001F51  0000              add [bx+si],al
00001F53  0000              add [bx+si],al
00001F55  0000              add [bx+si],al
00001F57  0000              add [bx+si],al
00001F59  0000              add [bx+si],al
00001F5B  0000              add [bx+si],al
00001F5D  0000              add [bx+si],al
00001F5F  0000              add [bx+si],al
00001F61  0000              add [bx+si],al
00001F63  0000              add [bx+si],al
00001F65  0000              add [bx+si],al
00001F67  0000              add [bx+si],al
00001F69  0000              add [bx+si],al
00001F6B  0000              add [bx+si],al
00001F6D  0000              add [bx+si],al
00001F6F  0000              add [bx+si],al
00001F71  0000              add [bx+si],al
00001F73  0000              add [bx+si],al
00001F75  0000              add [bx+si],al
00001F77  0000              add [bx+si],al
00001F79  0000              add [bx+si],al
00001F7B  0000              add [bx+si],al
00001F7D  0000              add [bx+si],al
00001F7F  0000              add [bx+si],al
00001F81  0000              add [bx+si],al
00001F83  0000              add [bx+si],al
00001F85  0000              add [bx+si],al
00001F87  0000              add [bx+si],al
00001F89  0000              add [bx+si],al
00001F8B  0000              add [bx+si],al
00001F8D  0000              add [bx+si],al
00001F8F  0000              add [bx+si],al
00001F91  0000              add [bx+si],al
00001F93  0000              add [bx+si],al
00001F95  0000              add [bx+si],al
00001F97  0000              add [bx+si],al
00001F99  0000              add [bx+si],al
00001F9B  0000              add [bx+si],al
00001F9D  0000              add [bx+si],al
00001F9F  0000              add [bx+si],al
00001FA1  0000              add [bx+si],al
00001FA3  0000              add [bx+si],al
00001FA5  0000              add [bx+si],al
00001FA7  0000              add [bx+si],al
00001FA9  0000              add [bx+si],al
00001FAB  0000              add [bx+si],al
00001FAD  0000              add [bx+si],al
00001FAF  0000              add [bx+si],al
00001FB1  0000              add [bx+si],al
00001FB3  0000              add [bx+si],al
00001FB5  0000              add [bx+si],al
00001FB7  0000              add [bx+si],al
00001FB9  0000              add [bx+si],al
00001FBB  0000              add [bx+si],al
00001FBD  0000              add [bx+si],al
00001FBF  0000              add [bx+si],al
00001FC1  0000              add [bx+si],al
00001FC3  0000              add [bx+si],al
00001FC5  0000              add [bx+si],al
00001FC7  0000              add [bx+si],al
00001FC9  0000              add [bx+si],al
00001FCB  0000              add [bx+si],al
00001FCD  0000              add [bx+si],al
00001FCF  0000              add [bx+si],al
00001FD1  0000              add [bx+si],al
00001FD3  0000              add [bx+si],al
00001FD5  0000              add [bx+si],al
00001FD7  0000              add [bx+si],al
00001FD9  0000              add [bx+si],al
00001FDB  0000              add [bx+si],al
00001FDD  0000              add [bx+si],al
00001FDF  0000              add [bx+si],al
00001FE1  0000              add [bx+si],al
00001FE3  0000              add [bx+si],al
00001FE5  0000              add [bx+si],al
00001FE7  0000              add [bx+si],al
00001FE9  0000              add [bx+si],al
00001FEB  0000              add [bx+si],al
00001FED  0000              add [bx+si],al
00001FEF  0000              add [bx+si],al
00001FF1  0000              add [bx+si],al
00001FF3  0000              add [bx+si],al
00001FF5  0000              add [bx+si],al
00001FF7  0000              add [bx+si],al
00001FF9  0000              add [bx+si],al
00001FFB  0000              add [bx+si],al
00001FFD  0000              add [bx+si],al
00001FFF  0001              add [bx+di],al
00002001  0002              add [bp+si],al
00002003  006561            add [di+0x61],ah
00002006  7379              jnc 0x2081
00002008  204153            and [bx+di+0x53],al
0000200B  53                push bx
0000200C  206368            and [bp+di+0x68],ah
0000200F  6561              gs popa
00002011  7420              jz 0x2033
00002013  6C                insb
00002014  6D                insw
00002015  61                popa
00002016  6F                outsw
00002017  0001              add [bx+di],al
00002019  1B03              sbb ax,[bp+di]
0000201B  3B24              cmp sp,[si]
0000201D  0000              add [bx+si],al
0000201F  0003              add [bp+di],al
00002021  0000              add [bx+si],al
00002023  0008              add [bx+si],cl
00002025  F0                lock
00002026  FF                db 0xff
00002027  FF5800            call far [bx+si+0x0]
0000202A  0000              add [bx+si],al
0000202C  28F0              sub al,dh
0000202E  FF                db 0xff
0000202F  FF4000            inc word [bx+si+0x0]
00002032  0000              add [bx+si],al
00002034  21F1              and cx,si
00002036  FF                db 0xff
00002037  FF800000          inc word [bx+si+0x0]
0000203B  0000              add [bx+si],al
0000203D  0000              add [bx+si],al
0000203F  0014              add [si],dl
00002041  0000              add [bx+si],al
00002043  0000              add [bx+si],al
00002045  0000              add [bx+si],al
00002047  0001              add [bx+di],al
00002049  7A52              jpe 0x209d
0000204B  0001              add [bx+di],al
0000204D  7810              js 0x205f
0000204F  011B              add [bp+di],bx
00002051  0C07              or al,0x7
00002053  08900100          or [bx+si+0x1],dl
00002057  0014              add [si],dl
00002059  0000              add [bx+si],al
0000205B  001C              add [si],bl
0000205D  0000              add [bx+si],al
0000205F  00E0              add al,ah
00002061  EF                out dx,ax
00002062  FF                db 0xff
00002063  FF260000          jmp [0x0]
00002067  0000              add [bx+si],al
00002069  44                inc sp
0000206A  07                pop es
0000206B  1000              adc [bx+si],al
0000206D  0000              add [bx+si],al
0000206F  0024              add [si],ah
00002071  0000              add [bx+si],al
00002073  0034              add [si],dh
00002075  0000              add [bx+si],al
00002077  00A8EFFF          add [bx+si-0x11],ch
0000207B  FF20              jmp [bx+si]
0000207D  0000              add [bx+si],al
0000207F  0000              add [bx+si],al
00002081  0E                push cs
00002082  10460E            adc [bp+0xe],al
00002085  184A0F            sbb [bp+si+0xf],cl
00002088  0B7708            or si,[bx+0x8]
0000208B  80003F            add byte [bx+si],0x3f
0000208E  1A3B              sbb bh,[bp+di]
00002090  2A33              sub dh,[bp+di]
00002092  2422              and al,0x22
00002094  0000              add [bx+si],al
00002096  0000              add [bx+si],al
00002098  1C00              sbb al,0x0
0000209A  0000              add [bx+si],al
0000209C  5C                pop sp
0000209D  0000              add [bx+si],al
0000209F  0099F0FF          add [bx+di-0x10],bl
000020A3  FF1F              call far [bx]
000020A5  0000              add [bx+si],al
000020A7  0000              add [bx+si],al
000020A9  41                inc cx
000020AA  0E                push cs
000020AB  10860243          adc [bp+0x4302],al
000020AF  0D065A            or ax,0x5a06
000020B2  0C07              or al,0x7
000020B4  0800              or [bx+si],al
000020B6  0000              add [bx+si],al
000020B8  0000              add [bx+si],al
000020BA  0000              add [bx+si],al
000020BC  0000              add [bx+si],al
000020BE  0000              add [bx+si],al
000020C0  0000              add [bx+si],al
000020C2  0000              add [bx+si],al
000020C4  0000              add [bx+si],al
000020C6  0000              add [bx+si],al
000020C8  0000              add [bx+si],al
000020CA  0000              add [bx+si],al
000020CC  0000              add [bx+si],al
000020CE  0000              add [bx+si],al
000020D0  0000              add [bx+si],al
000020D2  0000              add [bx+si],al
000020D4  0000              add [bx+si],al
000020D6  0000              add [bx+si],al
000020D8  0000              add [bx+si],al
000020DA  0000              add [bx+si],al
000020DC  0000              add [bx+si],al
000020DE  0000              add [bx+si],al
000020E0  0000              add [bx+si],al
000020E2  0000              add [bx+si],al
000020E4  0000              add [bx+si],al
000020E6  0000              add [bx+si],al
000020E8  0000              add [bx+si],al
000020EA  0000              add [bx+si],al
000020EC  0000              add [bx+si],al
000020EE  0000              add [bx+si],al
000020F0  0000              add [bx+si],al
000020F2  0000              add [bx+si],al
000020F4  0000              add [bx+si],al
000020F6  0000              add [bx+si],al
000020F8  0000              add [bx+si],al
000020FA  0000              add [bx+si],al
000020FC  0000              add [bx+si],al
000020FE  0000              add [bx+si],al
00002100  0000              add [bx+si],al
00002102  0000              add [bx+si],al
00002104  0000              add [bx+si],al
00002106  0000              add [bx+si],al
00002108  0000              add [bx+si],al
0000210A  0000              add [bx+si],al
0000210C  0000              add [bx+si],al
0000210E  0000              add [bx+si],al
00002110  0000              add [bx+si],al
00002112  0000              add [bx+si],al
00002114  0000              add [bx+si],al
00002116  0000              add [bx+si],al
00002118  0000              add [bx+si],al
0000211A  0000              add [bx+si],al
0000211C  0000              add [bx+si],al
0000211E  0000              add [bx+si],al
00002120  0000              add [bx+si],al
00002122  0000              add [bx+si],al
00002124  0000              add [bx+si],al
00002126  0000              add [bx+si],al
00002128  0000              add [bx+si],al
0000212A  0000              add [bx+si],al
0000212C  0000              add [bx+si],al
0000212E  0000              add [bx+si],al
00002130  0000              add [bx+si],al
00002132  0000              add [bx+si],al
00002134  0000              add [bx+si],al
00002136  0000              add [bx+si],al
00002138  0000              add [bx+si],al
0000213A  0000              add [bx+si],al
0000213C  0000              add [bx+si],al
0000213E  0000              add [bx+si],al
00002140  0000              add [bx+si],al
00002142  0000              add [bx+si],al
00002144  0000              add [bx+si],al
00002146  0000              add [bx+si],al
00002148  0000              add [bx+si],al
0000214A  0000              add [bx+si],al
0000214C  0000              add [bx+si],al
0000214E  0000              add [bx+si],al
00002150  0000              add [bx+si],al
00002152  0000              add [bx+si],al
00002154  0000              add [bx+si],al
00002156  0000              add [bx+si],al
00002158  0000              add [bx+si],al
0000215A  0000              add [bx+si],al
0000215C  0000              add [bx+si],al
0000215E  0000              add [bx+si],al
00002160  0000              add [bx+si],al
00002162  0000              add [bx+si],al
00002164  0000              add [bx+si],al
00002166  0000              add [bx+si],al
00002168  0000              add [bx+si],al
0000216A  0000              add [bx+si],al
0000216C  0000              add [bx+si],al
0000216E  0000              add [bx+si],al
00002170  0000              add [bx+si],al
00002172  0000              add [bx+si],al
00002174  0000              add [bx+si],al
00002176  0000              add [bx+si],al
00002178  0000              add [bx+si],al
0000217A  0000              add [bx+si],al
0000217C  0000              add [bx+si],al
0000217E  0000              add [bx+si],al
00002180  0000              add [bx+si],al
00002182  0000              add [bx+si],al
00002184  0000              add [bx+si],al
00002186  0000              add [bx+si],al
00002188  0000              add [bx+si],al
0000218A  0000              add [bx+si],al
0000218C  0000              add [bx+si],al
0000218E  0000              add [bx+si],al
00002190  0000              add [bx+si],al
00002192  0000              add [bx+si],al
00002194  0000              add [bx+si],al
00002196  0000              add [bx+si],al
00002198  0000              add [bx+si],al
0000219A  0000              add [bx+si],al
0000219C  0000              add [bx+si],al
0000219E  0000              add [bx+si],al
000021A0  0000              add [bx+si],al
000021A2  0000              add [bx+si],al
000021A4  0000              add [bx+si],al
000021A6  0000              add [bx+si],al
000021A8  0000              add [bx+si],al
000021AA  0000              add [bx+si],al
000021AC  0000              add [bx+si],al
000021AE  0000              add [bx+si],al
000021B0  0000              add [bx+si],al
000021B2  0000              add [bx+si],al
000021B4  0000              add [bx+si],al
000021B6  0000              add [bx+si],al
000021B8  0000              add [bx+si],al
000021BA  0000              add [bx+si],al
000021BC  0000              add [bx+si],al
000021BE  0000              add [bx+si],al
000021C0  0000              add [bx+si],al
000021C2  0000              add [bx+si],al
000021C4  0000              add [bx+si],al
000021C6  0000              add [bx+si],al
000021C8  0000              add [bx+si],al
000021CA  0000              add [bx+si],al
000021CC  0000              add [bx+si],al
000021CE  0000              add [bx+si],al
000021D0  0000              add [bx+si],al
000021D2  0000              add [bx+si],al
000021D4  0000              add [bx+si],al
000021D6  0000              add [bx+si],al
000021D8  0000              add [bx+si],al
000021DA  0000              add [bx+si],al
000021DC  0000              add [bx+si],al
000021DE  0000              add [bx+si],al
000021E0  0000              add [bx+si],al
000021E2  0000              add [bx+si],al
000021E4  0000              add [bx+si],al
000021E6  0000              add [bx+si],al
000021E8  0000              add [bx+si],al
000021EA  0000              add [bx+si],al
000021EC  0000              add [bx+si],al
000021EE  0000              add [bx+si],al
000021F0  0000              add [bx+si],al
000021F2  0000              add [bx+si],al
000021F4  0000              add [bx+si],al
000021F6  0000              add [bx+si],al
000021F8  0000              add [bx+si],al
000021FA  0000              add [bx+si],al
000021FC  0000              add [bx+si],al
000021FE  0000              add [bx+si],al
00002200  0000              add [bx+si],al
00002202  0000              add [bx+si],al
00002204  0000              add [bx+si],al
00002206  0000              add [bx+si],al
00002208  0000              add [bx+si],al
0000220A  0000              add [bx+si],al
0000220C  0000              add [bx+si],al
0000220E  0000              add [bx+si],al
00002210  0000              add [bx+si],al
00002212  0000              add [bx+si],al
00002214  0000              add [bx+si],al
00002216  0000              add [bx+si],al
00002218  0000              add [bx+si],al
0000221A  0000              add [bx+si],al
0000221C  0000              add [bx+si],al
0000221E  0000              add [bx+si],al
00002220  0000              add [bx+si],al
00002222  0000              add [bx+si],al
00002224  0000              add [bx+si],al
00002226  0000              add [bx+si],al
00002228  0000              add [bx+si],al
0000222A  0000              add [bx+si],al
0000222C  0000              add [bx+si],al
0000222E  0000              add [bx+si],al
00002230  0000              add [bx+si],al
00002232  0000              add [bx+si],al
00002234  0000              add [bx+si],al
00002236  0000              add [bx+si],al
00002238  0000              add [bx+si],al
0000223A  0000              add [bx+si],al
0000223C  0000              add [bx+si],al
0000223E  0000              add [bx+si],al
00002240  0000              add [bx+si],al
00002242  0000              add [bx+si],al
00002244  0000              add [bx+si],al
00002246  0000              add [bx+si],al
00002248  0000              add [bx+si],al
0000224A  0000              add [bx+si],al
0000224C  0000              add [bx+si],al
0000224E  0000              add [bx+si],al
00002250  0000              add [bx+si],al
00002252  0000              add [bx+si],al
00002254  0000              add [bx+si],al
00002256  0000              add [bx+si],al
00002258  0000              add [bx+si],al
0000225A  0000              add [bx+si],al
0000225C  0000              add [bx+si],al
0000225E  0000              add [bx+si],al
00002260  0000              add [bx+si],al
00002262  0000              add [bx+si],al
00002264  0000              add [bx+si],al
00002266  0000              add [bx+si],al
00002268  0000              add [bx+si],al
0000226A  0000              add [bx+si],al
0000226C  0000              add [bx+si],al
0000226E  0000              add [bx+si],al
00002270  0000              add [bx+si],al
00002272  0000              add [bx+si],al
00002274  0000              add [bx+si],al
00002276  0000              add [bx+si],al
00002278  0000              add [bx+si],al
0000227A  0000              add [bx+si],al
0000227C  0000              add [bx+si],al
0000227E  0000              add [bx+si],al
00002280  0000              add [bx+si],al
00002282  0000              add [bx+si],al
00002284  0000              add [bx+si],al
00002286  0000              add [bx+si],al
00002288  0000              add [bx+si],al
0000228A  0000              add [bx+si],al
0000228C  0000              add [bx+si],al
0000228E  0000              add [bx+si],al
00002290  0000              add [bx+si],al
00002292  0000              add [bx+si],al
00002294  0000              add [bx+si],al
00002296  0000              add [bx+si],al
00002298  0000              add [bx+si],al
0000229A  0000              add [bx+si],al
0000229C  0000              add [bx+si],al
0000229E  0000              add [bx+si],al
000022A0  0000              add [bx+si],al
000022A2  0000              add [bx+si],al
000022A4  0000              add [bx+si],al
000022A6  0000              add [bx+si],al
000022A8  0000              add [bx+si],al
000022AA  0000              add [bx+si],al
000022AC  0000              add [bx+si],al
000022AE  0000              add [bx+si],al
000022B0  0000              add [bx+si],al
000022B2  0000              add [bx+si],al
000022B4  0000              add [bx+si],al
000022B6  0000              add [bx+si],al
000022B8  0000              add [bx+si],al
000022BA  0000              add [bx+si],al
000022BC  0000              add [bx+si],al
000022BE  0000              add [bx+si],al
000022C0  0000              add [bx+si],al
000022C2  0000              add [bx+si],al
000022C4  0000              add [bx+si],al
000022C6  0000              add [bx+si],al
000022C8  0000              add [bx+si],al
000022CA  0000              add [bx+si],al
000022CC  0000              add [bx+si],al
000022CE  0000              add [bx+si],al
000022D0  0000              add [bx+si],al
000022D2  0000              add [bx+si],al
000022D4  0000              add [bx+si],al
000022D6  0000              add [bx+si],al
000022D8  0000              add [bx+si],al
000022DA  0000              add [bx+si],al
000022DC  0000              add [bx+si],al
000022DE  0000              add [bx+si],al
000022E0  0000              add [bx+si],al
000022E2  0000              add [bx+si],al
000022E4  0000              add [bx+si],al
000022E6  0000              add [bx+si],al
000022E8  0000              add [bx+si],al
000022EA  0000              add [bx+si],al
000022EC  0000              add [bx+si],al
000022EE  0000              add [bx+si],al
000022F0  0000              add [bx+si],al
000022F2  0000              add [bx+si],al
000022F4  0000              add [bx+si],al
000022F6  0000              add [bx+si],al
000022F8  0000              add [bx+si],al
000022FA  0000              add [bx+si],al
000022FC  0000              add [bx+si],al
000022FE  0000              add [bx+si],al
00002300  0000              add [bx+si],al
00002302  0000              add [bx+si],al
00002304  0000              add [bx+si],al
00002306  0000              add [bx+si],al
00002308  0000              add [bx+si],al
0000230A  0000              add [bx+si],al
0000230C  0000              add [bx+si],al
0000230E  0000              add [bx+si],al
00002310  0000              add [bx+si],al
00002312  0000              add [bx+si],al
00002314  0000              add [bx+si],al
00002316  0000              add [bx+si],al
00002318  0000              add [bx+si],al
0000231A  0000              add [bx+si],al
0000231C  0000              add [bx+si],al
0000231E  0000              add [bx+si],al
00002320  0000              add [bx+si],al
00002322  0000              add [bx+si],al
00002324  0000              add [bx+si],al
00002326  0000              add [bx+si],al
00002328  0000              add [bx+si],al
0000232A  0000              add [bx+si],al
0000232C  0000              add [bx+si],al
0000232E  0000              add [bx+si],al
00002330  0000              add [bx+si],al
00002332  0000              add [bx+si],al
00002334  0000              add [bx+si],al
00002336  0000              add [bx+si],al
00002338  0000              add [bx+si],al
0000233A  0000              add [bx+si],al
0000233C  0000              add [bx+si],al
0000233E  0000              add [bx+si],al
00002340  0000              add [bx+si],al
00002342  0000              add [bx+si],al
00002344  0000              add [bx+si],al
00002346  0000              add [bx+si],al
00002348  0000              add [bx+si],al
0000234A  0000              add [bx+si],al
0000234C  0000              add [bx+si],al
0000234E  0000              add [bx+si],al
00002350  0000              add [bx+si],al
00002352  0000              add [bx+si],al
00002354  0000              add [bx+si],al
00002356  0000              add [bx+si],al
00002358  0000              add [bx+si],al
0000235A  0000              add [bx+si],al
0000235C  0000              add [bx+si],al
0000235E  0000              add [bx+si],al
00002360  0000              add [bx+si],al
00002362  0000              add [bx+si],al
00002364  0000              add [bx+si],al
00002366  0000              add [bx+si],al
00002368  0000              add [bx+si],al
0000236A  0000              add [bx+si],al
0000236C  0000              add [bx+si],al
0000236E  0000              add [bx+si],al
00002370  0000              add [bx+si],al
00002372  0000              add [bx+si],al
00002374  0000              add [bx+si],al
00002376  0000              add [bx+si],al
00002378  0000              add [bx+si],al
0000237A  0000              add [bx+si],al
0000237C  0000              add [bx+si],al
0000237E  0000              add [bx+si],al
00002380  0000              add [bx+si],al
00002382  0000              add [bx+si],al
00002384  0000              add [bx+si],al
00002386  0000              add [bx+si],al
00002388  0000              add [bx+si],al
0000238A  0000              add [bx+si],al
0000238C  0000              add [bx+si],al
0000238E  0000              add [bx+si],al
00002390  0000              add [bx+si],al
00002392  0000              add [bx+si],al
00002394  0000              add [bx+si],al
00002396  0000              add [bx+si],al
00002398  0000              add [bx+si],al
0000239A  0000              add [bx+si],al
0000239C  0000              add [bx+si],al
0000239E  0000              add [bx+si],al
000023A0  0000              add [bx+si],al
000023A2  0000              add [bx+si],al
000023A4  0000              add [bx+si],al
000023A6  0000              add [bx+si],al
000023A8  0000              add [bx+si],al
000023AA  0000              add [bx+si],al
000023AC  0000              add [bx+si],al
000023AE  0000              add [bx+si],al
000023B0  0000              add [bx+si],al
000023B2  0000              add [bx+si],al
000023B4  0000              add [bx+si],al
000023B6  0000              add [bx+si],al
000023B8  0000              add [bx+si],al
000023BA  0000              add [bx+si],al
000023BC  0000              add [bx+si],al
000023BE  0000              add [bx+si],al
000023C0  0000              add [bx+si],al
000023C2  0000              add [bx+si],al
000023C4  0000              add [bx+si],al
000023C6  0000              add [bx+si],al
000023C8  0000              add [bx+si],al
000023CA  0000              add [bx+si],al
000023CC  0000              add [bx+si],al
000023CE  0000              add [bx+si],al
000023D0  0000              add [bx+si],al
000023D2  0000              add [bx+si],al
000023D4  0000              add [bx+si],al
000023D6  0000              add [bx+si],al
000023D8  0000              add [bx+si],al
000023DA  0000              add [bx+si],al
000023DC  0000              add [bx+si],al
000023DE  0000              add [bx+si],al
000023E0  0000              add [bx+si],al
000023E2  0000              add [bx+si],al
000023E4  0000              add [bx+si],al
000023E6  0000              add [bx+si],al
000023E8  0000              add [bx+si],al
000023EA  0000              add [bx+si],al
000023EC  0000              add [bx+si],al
000023EE  0000              add [bx+si],al
000023F0  0000              add [bx+si],al
000023F2  0000              add [bx+si],al
000023F4  0000              add [bx+si],al
000023F6  0000              add [bx+si],al
000023F8  0000              add [bx+si],al
000023FA  0000              add [bx+si],al
000023FC  0000              add [bx+si],al
000023FE  0000              add [bx+si],al
00002400  0000              add [bx+si],al
00002402  0000              add [bx+si],al
00002404  0000              add [bx+si],al
00002406  0000              add [bx+si],al
00002408  0000              add [bx+si],al
0000240A  0000              add [bx+si],al
0000240C  0000              add [bx+si],al
0000240E  0000              add [bx+si],al
00002410  0000              add [bx+si],al
00002412  0000              add [bx+si],al
00002414  0000              add [bx+si],al
00002416  0000              add [bx+si],al
00002418  0000              add [bx+si],al
0000241A  0000              add [bx+si],al
0000241C  0000              add [bx+si],al
0000241E  0000              add [bx+si],al
00002420  0000              add [bx+si],al
00002422  0000              add [bx+si],al
00002424  0000              add [bx+si],al
00002426  0000              add [bx+si],al
00002428  0000              add [bx+si],al
0000242A  0000              add [bx+si],al
0000242C  0000              add [bx+si],al
0000242E  0000              add [bx+si],al
00002430  0000              add [bx+si],al
00002432  0000              add [bx+si],al
00002434  0000              add [bx+si],al
00002436  0000              add [bx+si],al
00002438  0000              add [bx+si],al
0000243A  0000              add [bx+si],al
0000243C  0000              add [bx+si],al
0000243E  0000              add [bx+si],al
00002440  0000              add [bx+si],al
00002442  0000              add [bx+si],al
00002444  0000              add [bx+si],al
00002446  0000              add [bx+si],al
00002448  0000              add [bx+si],al
0000244A  0000              add [bx+si],al
0000244C  0000              add [bx+si],al
0000244E  0000              add [bx+si],al
00002450  0000              add [bx+si],al
00002452  0000              add [bx+si],al
00002454  0000              add [bx+si],al
00002456  0000              add [bx+si],al
00002458  0000              add [bx+si],al
0000245A  0000              add [bx+si],al
0000245C  0000              add [bx+si],al
0000245E  0000              add [bx+si],al
00002460  0000              add [bx+si],al
00002462  0000              add [bx+si],al
00002464  0000              add [bx+si],al
00002466  0000              add [bx+si],al
00002468  0000              add [bx+si],al
0000246A  0000              add [bx+si],al
0000246C  0000              add [bx+si],al
0000246E  0000              add [bx+si],al
00002470  0000              add [bx+si],al
00002472  0000              add [bx+si],al
00002474  0000              add [bx+si],al
00002476  0000              add [bx+si],al
00002478  0000              add [bx+si],al
0000247A  0000              add [bx+si],al
0000247C  0000              add [bx+si],al
0000247E  0000              add [bx+si],al
00002480  0000              add [bx+si],al
00002482  0000              add [bx+si],al
00002484  0000              add [bx+si],al
00002486  0000              add [bx+si],al
00002488  0000              add [bx+si],al
0000248A  0000              add [bx+si],al
0000248C  0000              add [bx+si],al
0000248E  0000              add [bx+si],al
00002490  0000              add [bx+si],al
00002492  0000              add [bx+si],al
00002494  0000              add [bx+si],al
00002496  0000              add [bx+si],al
00002498  0000              add [bx+si],al
0000249A  0000              add [bx+si],al
0000249C  0000              add [bx+si],al
0000249E  0000              add [bx+si],al
000024A0  0000              add [bx+si],al
000024A2  0000              add [bx+si],al
000024A4  0000              add [bx+si],al
000024A6  0000              add [bx+si],al
000024A8  0000              add [bx+si],al
000024AA  0000              add [bx+si],al
000024AC  0000              add [bx+si],al
000024AE  0000              add [bx+si],al
000024B0  0000              add [bx+si],al
000024B2  0000              add [bx+si],al
000024B4  0000              add [bx+si],al
000024B6  0000              add [bx+si],al
000024B8  0000              add [bx+si],al
000024BA  0000              add [bx+si],al
000024BC  0000              add [bx+si],al
000024BE  0000              add [bx+si],al
000024C0  0000              add [bx+si],al
000024C2  0000              add [bx+si],al
000024C4  0000              add [bx+si],al
000024C6  0000              add [bx+si],al
000024C8  0000              add [bx+si],al
000024CA  0000              add [bx+si],al
000024CC  0000              add [bx+si],al
000024CE  0000              add [bx+si],al
000024D0  0000              add [bx+si],al
000024D2  0000              add [bx+si],al
000024D4  0000              add [bx+si],al
000024D6  0000              add [bx+si],al
000024D8  0000              add [bx+si],al
000024DA  0000              add [bx+si],al
000024DC  0000              add [bx+si],al
000024DE  0000              add [bx+si],al
000024E0  0000              add [bx+si],al
000024E2  0000              add [bx+si],al
000024E4  0000              add [bx+si],al
000024E6  0000              add [bx+si],al
000024E8  0000              add [bx+si],al
000024EA  0000              add [bx+si],al
000024EC  0000              add [bx+si],al
000024EE  0000              add [bx+si],al
000024F0  0000              add [bx+si],al
000024F2  0000              add [bx+si],al
000024F4  0000              add [bx+si],al
000024F6  0000              add [bx+si],al
000024F8  0000              add [bx+si],al
000024FA  0000              add [bx+si],al
000024FC  0000              add [bx+si],al
000024FE  0000              add [bx+si],al
00002500  0000              add [bx+si],al
00002502  0000              add [bx+si],al
00002504  0000              add [bx+si],al
00002506  0000              add [bx+si],al
00002508  0000              add [bx+si],al
0000250A  0000              add [bx+si],al
0000250C  0000              add [bx+si],al
0000250E  0000              add [bx+si],al
00002510  0000              add [bx+si],al
00002512  0000              add [bx+si],al
00002514  0000              add [bx+si],al
00002516  0000              add [bx+si],al
00002518  0000              add [bx+si],al
0000251A  0000              add [bx+si],al
0000251C  0000              add [bx+si],al
0000251E  0000              add [bx+si],al
00002520  0000              add [bx+si],al
00002522  0000              add [bx+si],al
00002524  0000              add [bx+si],al
00002526  0000              add [bx+si],al
00002528  0000              add [bx+si],al
0000252A  0000              add [bx+si],al
0000252C  0000              add [bx+si],al
0000252E  0000              add [bx+si],al
00002530  0000              add [bx+si],al
00002532  0000              add [bx+si],al
00002534  0000              add [bx+si],al
00002536  0000              add [bx+si],al
00002538  0000              add [bx+si],al
0000253A  0000              add [bx+si],al
0000253C  0000              add [bx+si],al
0000253E  0000              add [bx+si],al
00002540  0000              add [bx+si],al
00002542  0000              add [bx+si],al
00002544  0000              add [bx+si],al
00002546  0000              add [bx+si],al
00002548  0000              add [bx+si],al
0000254A  0000              add [bx+si],al
0000254C  0000              add [bx+si],al
0000254E  0000              add [bx+si],al
00002550  0000              add [bx+si],al
00002552  0000              add [bx+si],al
00002554  0000              add [bx+si],al
00002556  0000              add [bx+si],al
00002558  0000              add [bx+si],al
0000255A  0000              add [bx+si],al
0000255C  0000              add [bx+si],al
0000255E  0000              add [bx+si],al
00002560  0000              add [bx+si],al
00002562  0000              add [bx+si],al
00002564  0000              add [bx+si],al
00002566  0000              add [bx+si],al
00002568  0000              add [bx+si],al
0000256A  0000              add [bx+si],al
0000256C  0000              add [bx+si],al
0000256E  0000              add [bx+si],al
00002570  0000              add [bx+si],al
00002572  0000              add [bx+si],al
00002574  0000              add [bx+si],al
00002576  0000              add [bx+si],al
00002578  0000              add [bx+si],al
0000257A  0000              add [bx+si],al
0000257C  0000              add [bx+si],al
0000257E  0000              add [bx+si],al
00002580  0000              add [bx+si],al
00002582  0000              add [bx+si],al
00002584  0000              add [bx+si],al
00002586  0000              add [bx+si],al
00002588  0000              add [bx+si],al
0000258A  0000              add [bx+si],al
0000258C  0000              add [bx+si],al
0000258E  0000              add [bx+si],al
00002590  0000              add [bx+si],al
00002592  0000              add [bx+si],al
00002594  0000              add [bx+si],al
00002596  0000              add [bx+si],al
00002598  0000              add [bx+si],al
0000259A  0000              add [bx+si],al
0000259C  0000              add [bx+si],al
0000259E  0000              add [bx+si],al
000025A0  0000              add [bx+si],al
000025A2  0000              add [bx+si],al
000025A4  0000              add [bx+si],al
000025A6  0000              add [bx+si],al
000025A8  0000              add [bx+si],al
000025AA  0000              add [bx+si],al
000025AC  0000              add [bx+si],al
000025AE  0000              add [bx+si],al
000025B0  0000              add [bx+si],al
000025B2  0000              add [bx+si],al
000025B4  0000              add [bx+si],al
000025B6  0000              add [bx+si],al
000025B8  0000              add [bx+si],al
000025BA  0000              add [bx+si],al
000025BC  0000              add [bx+si],al
000025BE  0000              add [bx+si],al
000025C0  0000              add [bx+si],al
000025C2  0000              add [bx+si],al
000025C4  0000              add [bx+si],al
000025C6  0000              add [bx+si],al
000025C8  0000              add [bx+si],al
000025CA  0000              add [bx+si],al
000025CC  0000              add [bx+si],al
000025CE  0000              add [bx+si],al
000025D0  0000              add [bx+si],al
000025D2  0000              add [bx+si],al
000025D4  0000              add [bx+si],al
000025D6  0000              add [bx+si],al
000025D8  0000              add [bx+si],al
000025DA  0000              add [bx+si],al
000025DC  0000              add [bx+si],al
000025DE  0000              add [bx+si],al
000025E0  0000              add [bx+si],al
000025E2  0000              add [bx+si],al
000025E4  0000              add [bx+si],al
000025E6  0000              add [bx+si],al
000025E8  0000              add [bx+si],al
000025EA  0000              add [bx+si],al
000025EC  0000              add [bx+si],al
000025EE  0000              add [bx+si],al
000025F0  0000              add [bx+si],al
000025F2  0000              add [bx+si],al
000025F4  0000              add [bx+si],al
000025F6  0000              add [bx+si],al
000025F8  0000              add [bx+si],al
000025FA  0000              add [bx+si],al
000025FC  0000              add [bx+si],al
000025FE  0000              add [bx+si],al
00002600  0000              add [bx+si],al
00002602  0000              add [bx+si],al
00002604  0000              add [bx+si],al
00002606  0000              add [bx+si],al
00002608  0000              add [bx+si],al
0000260A  0000              add [bx+si],al
0000260C  0000              add [bx+si],al
0000260E  0000              add [bx+si],al
00002610  0000              add [bx+si],al
00002612  0000              add [bx+si],al
00002614  0000              add [bx+si],al
00002616  0000              add [bx+si],al
00002618  0000              add [bx+si],al
0000261A  0000              add [bx+si],al
0000261C  0000              add [bx+si],al
0000261E  0000              add [bx+si],al
00002620  0000              add [bx+si],al
00002622  0000              add [bx+si],al
00002624  0000              add [bx+si],al
00002626  0000              add [bx+si],al
00002628  0000              add [bx+si],al
0000262A  0000              add [bx+si],al
0000262C  0000              add [bx+si],al
0000262E  0000              add [bx+si],al
00002630  0000              add [bx+si],al
00002632  0000              add [bx+si],al
00002634  0000              add [bx+si],al
00002636  0000              add [bx+si],al
00002638  0000              add [bx+si],al
0000263A  0000              add [bx+si],al
0000263C  0000              add [bx+si],al
0000263E  0000              add [bx+si],al
00002640  0000              add [bx+si],al
00002642  0000              add [bx+si],al
00002644  0000              add [bx+si],al
00002646  0000              add [bx+si],al
00002648  0000              add [bx+si],al
0000264A  0000              add [bx+si],al
0000264C  0000              add [bx+si],al
0000264E  0000              add [bx+si],al
00002650  0000              add [bx+si],al
00002652  0000              add [bx+si],al
00002654  0000              add [bx+si],al
00002656  0000              add [bx+si],al
00002658  0000              add [bx+si],al
0000265A  0000              add [bx+si],al
0000265C  0000              add [bx+si],al
0000265E  0000              add [bx+si],al
00002660  0000              add [bx+si],al
00002662  0000              add [bx+si],al
00002664  0000              add [bx+si],al
00002666  0000              add [bx+si],al
00002668  0000              add [bx+si],al
0000266A  0000              add [bx+si],al
0000266C  0000              add [bx+si],al
0000266E  0000              add [bx+si],al
00002670  0000              add [bx+si],al
00002672  0000              add [bx+si],al
00002674  0000              add [bx+si],al
00002676  0000              add [bx+si],al
00002678  0000              add [bx+si],al
0000267A  0000              add [bx+si],al
0000267C  0000              add [bx+si],al
0000267E  0000              add [bx+si],al
00002680  0000              add [bx+si],al
00002682  0000              add [bx+si],al
00002684  0000              add [bx+si],al
00002686  0000              add [bx+si],al
00002688  0000              add [bx+si],al
0000268A  0000              add [bx+si],al
0000268C  0000              add [bx+si],al
0000268E  0000              add [bx+si],al
00002690  0000              add [bx+si],al
00002692  0000              add [bx+si],al
00002694  0000              add [bx+si],al
00002696  0000              add [bx+si],al
00002698  0000              add [bx+si],al
0000269A  0000              add [bx+si],al
0000269C  0000              add [bx+si],al
0000269E  0000              add [bx+si],al
000026A0  0000              add [bx+si],al
000026A2  0000              add [bx+si],al
000026A4  0000              add [bx+si],al
000026A6  0000              add [bx+si],al
000026A8  0000              add [bx+si],al
000026AA  0000              add [bx+si],al
000026AC  0000              add [bx+si],al
000026AE  0000              add [bx+si],al
000026B0  0000              add [bx+si],al
000026B2  0000              add [bx+si],al
000026B4  0000              add [bx+si],al
000026B6  0000              add [bx+si],al
000026B8  0000              add [bx+si],al
000026BA  0000              add [bx+si],al
000026BC  0000              add [bx+si],al
000026BE  0000              add [bx+si],al
000026C0  0000              add [bx+si],al
000026C2  0000              add [bx+si],al
000026C4  0000              add [bx+si],al
000026C6  0000              add [bx+si],al
000026C8  0000              add [bx+si],al
000026CA  0000              add [bx+si],al
000026CC  0000              add [bx+si],al
000026CE  0000              add [bx+si],al
000026D0  0000              add [bx+si],al
000026D2  0000              add [bx+si],al
000026D4  0000              add [bx+si],al
000026D6  0000              add [bx+si],al
000026D8  0000              add [bx+si],al
000026DA  0000              add [bx+si],al
000026DC  0000              add [bx+si],al
000026DE  0000              add [bx+si],al
000026E0  0000              add [bx+si],al
000026E2  0000              add [bx+si],al
000026E4  0000              add [bx+si],al
000026E6  0000              add [bx+si],al
000026E8  0000              add [bx+si],al
000026EA  0000              add [bx+si],al
000026EC  0000              add [bx+si],al
000026EE  0000              add [bx+si],al
000026F0  0000              add [bx+si],al
000026F2  0000              add [bx+si],al
000026F4  0000              add [bx+si],al
000026F6  0000              add [bx+si],al
000026F8  0000              add [bx+si],al
000026FA  0000              add [bx+si],al
000026FC  0000              add [bx+si],al
000026FE  0000              add [bx+si],al
00002700  0000              add [bx+si],al
00002702  0000              add [bx+si],al
00002704  0000              add [bx+si],al
00002706  0000              add [bx+si],al
00002708  0000              add [bx+si],al
0000270A  0000              add [bx+si],al
0000270C  0000              add [bx+si],al
0000270E  0000              add [bx+si],al
00002710  0000              add [bx+si],al
00002712  0000              add [bx+si],al
00002714  0000              add [bx+si],al
00002716  0000              add [bx+si],al
00002718  0000              add [bx+si],al
0000271A  0000              add [bx+si],al
0000271C  0000              add [bx+si],al
0000271E  0000              add [bx+si],al
00002720  0000              add [bx+si],al
00002722  0000              add [bx+si],al
00002724  0000              add [bx+si],al
00002726  0000              add [bx+si],al
00002728  0000              add [bx+si],al
0000272A  0000              add [bx+si],al
0000272C  0000              add [bx+si],al
0000272E  0000              add [bx+si],al
00002730  0000              add [bx+si],al
00002732  0000              add [bx+si],al
00002734  0000              add [bx+si],al
00002736  0000              add [bx+si],al
00002738  0000              add [bx+si],al
0000273A  0000              add [bx+si],al
0000273C  0000              add [bx+si],al
0000273E  0000              add [bx+si],al
00002740  0000              add [bx+si],al
00002742  0000              add [bx+si],al
00002744  0000              add [bx+si],al
00002746  0000              add [bx+si],al
00002748  0000              add [bx+si],al
0000274A  0000              add [bx+si],al
0000274C  0000              add [bx+si],al
0000274E  0000              add [bx+si],al
00002750  0000              add [bx+si],al
00002752  0000              add [bx+si],al
00002754  0000              add [bx+si],al
00002756  0000              add [bx+si],al
00002758  0000              add [bx+si],al
0000275A  0000              add [bx+si],al
0000275C  0000              add [bx+si],al
0000275E  0000              add [bx+si],al
00002760  0000              add [bx+si],al
00002762  0000              add [bx+si],al
00002764  0000              add [bx+si],al
00002766  0000              add [bx+si],al
00002768  0000              add [bx+si],al
0000276A  0000              add [bx+si],al
0000276C  0000              add [bx+si],al
0000276E  0000              add [bx+si],al
00002770  0000              add [bx+si],al
00002772  0000              add [bx+si],al
00002774  0000              add [bx+si],al
00002776  0000              add [bx+si],al
00002778  0000              add [bx+si],al
0000277A  0000              add [bx+si],al
0000277C  0000              add [bx+si],al
0000277E  0000              add [bx+si],al
00002780  0000              add [bx+si],al
00002782  0000              add [bx+si],al
00002784  0000              add [bx+si],al
00002786  0000              add [bx+si],al
00002788  0000              add [bx+si],al
0000278A  0000              add [bx+si],al
0000278C  0000              add [bx+si],al
0000278E  0000              add [bx+si],al
00002790  0000              add [bx+si],al
00002792  0000              add [bx+si],al
00002794  0000              add [bx+si],al
00002796  0000              add [bx+si],al
00002798  0000              add [bx+si],al
0000279A  0000              add [bx+si],al
0000279C  0000              add [bx+si],al
0000279E  0000              add [bx+si],al
000027A0  0000              add [bx+si],al
000027A2  0000              add [bx+si],al
000027A4  0000              add [bx+si],al
000027A6  0000              add [bx+si],al
000027A8  0000              add [bx+si],al
000027AA  0000              add [bx+si],al
000027AC  0000              add [bx+si],al
000027AE  0000              add [bx+si],al
000027B0  0000              add [bx+si],al
000027B2  0000              add [bx+si],al
000027B4  0000              add [bx+si],al
000027B6  0000              add [bx+si],al
000027B8  0000              add [bx+si],al
000027BA  0000              add [bx+si],al
000027BC  0000              add [bx+si],al
000027BE  0000              add [bx+si],al
000027C0  0000              add [bx+si],al
000027C2  0000              add [bx+si],al
000027C4  0000              add [bx+si],al
000027C6  0000              add [bx+si],al
000027C8  0000              add [bx+si],al
000027CA  0000              add [bx+si],al
000027CC  0000              add [bx+si],al
000027CE  0000              add [bx+si],al
000027D0  0000              add [bx+si],al
000027D2  0000              add [bx+si],al
000027D4  0000              add [bx+si],al
000027D6  0000              add [bx+si],al
000027D8  0000              add [bx+si],al
000027DA  0000              add [bx+si],al
000027DC  0000              add [bx+si],al
000027DE  0000              add [bx+si],al
000027E0  0000              add [bx+si],al
000027E2  0000              add [bx+si],al
000027E4  0000              add [bx+si],al
000027E6  0000              add [bx+si],al
000027E8  0000              add [bx+si],al
000027EA  0000              add [bx+si],al
000027EC  0000              add [bx+si],al
000027EE  0000              add [bx+si],al
000027F0  0000              add [bx+si],al
000027F2  0000              add [bx+si],al
000027F4  0000              add [bx+si],al
000027F6  0000              add [bx+si],al
000027F8  0000              add [bx+si],al
000027FA  0000              add [bx+si],al
000027FC  0000              add [bx+si],al
000027FE  0000              add [bx+si],al
00002800  0000              add [bx+si],al
00002802  0000              add [bx+si],al
00002804  0000              add [bx+si],al
00002806  0000              add [bx+si],al
00002808  0000              add [bx+si],al
0000280A  0000              add [bx+si],al
0000280C  0000              add [bx+si],al
0000280E  0000              add [bx+si],al
00002810  0000              add [bx+si],al
00002812  0000              add [bx+si],al
00002814  0000              add [bx+si],al
00002816  0000              add [bx+si],al
00002818  0000              add [bx+si],al
0000281A  0000              add [bx+si],al
0000281C  0000              add [bx+si],al
0000281E  0000              add [bx+si],al
00002820  0000              add [bx+si],al
00002822  0000              add [bx+si],al
00002824  0000              add [bx+si],al
00002826  0000              add [bx+si],al
00002828  0000              add [bx+si],al
0000282A  0000              add [bx+si],al
0000282C  0000              add [bx+si],al
0000282E  0000              add [bx+si],al
00002830  0000              add [bx+si],al
00002832  0000              add [bx+si],al
00002834  0000              add [bx+si],al
00002836  0000              add [bx+si],al
00002838  0000              add [bx+si],al
0000283A  0000              add [bx+si],al
0000283C  0000              add [bx+si],al
0000283E  0000              add [bx+si],al
00002840  0000              add [bx+si],al
00002842  0000              add [bx+si],al
00002844  0000              add [bx+si],al
00002846  0000              add [bx+si],al
00002848  0000              add [bx+si],al
0000284A  0000              add [bx+si],al
0000284C  0000              add [bx+si],al
0000284E  0000              add [bx+si],al
00002850  0000              add [bx+si],al
00002852  0000              add [bx+si],al
00002854  0000              add [bx+si],al
00002856  0000              add [bx+si],al
00002858  0000              add [bx+si],al
0000285A  0000              add [bx+si],al
0000285C  0000              add [bx+si],al
0000285E  0000              add [bx+si],al
00002860  0000              add [bx+si],al
00002862  0000              add [bx+si],al
00002864  0000              add [bx+si],al
00002866  0000              add [bx+si],al
00002868  0000              add [bx+si],al
0000286A  0000              add [bx+si],al
0000286C  0000              add [bx+si],al
0000286E  0000              add [bx+si],al
00002870  0000              add [bx+si],al
00002872  0000              add [bx+si],al
00002874  0000              add [bx+si],al
00002876  0000              add [bx+si],al
00002878  0000              add [bx+si],al
0000287A  0000              add [bx+si],al
0000287C  0000              add [bx+si],al
0000287E  0000              add [bx+si],al
00002880  0000              add [bx+si],al
00002882  0000              add [bx+si],al
00002884  0000              add [bx+si],al
00002886  0000              add [bx+si],al
00002888  0000              add [bx+si],al
0000288A  0000              add [bx+si],al
0000288C  0000              add [bx+si],al
0000288E  0000              add [bx+si],al
00002890  0000              add [bx+si],al
00002892  0000              add [bx+si],al
00002894  0000              add [bx+si],al
00002896  0000              add [bx+si],al
00002898  0000              add [bx+si],al
0000289A  0000              add [bx+si],al
0000289C  0000              add [bx+si],al
0000289E  0000              add [bx+si],al
000028A0  0000              add [bx+si],al
000028A2  0000              add [bx+si],al
000028A4  0000              add [bx+si],al
000028A6  0000              add [bx+si],al
000028A8  0000              add [bx+si],al
000028AA  0000              add [bx+si],al
000028AC  0000              add [bx+si],al
000028AE  0000              add [bx+si],al
000028B0  0000              add [bx+si],al
000028B2  0000              add [bx+si],al
000028B4  0000              add [bx+si],al
000028B6  0000              add [bx+si],al
000028B8  0000              add [bx+si],al
000028BA  0000              add [bx+si],al
000028BC  0000              add [bx+si],al
000028BE  0000              add [bx+si],al
000028C0  0000              add [bx+si],al
000028C2  0000              add [bx+si],al
000028C4  0000              add [bx+si],al
000028C6  0000              add [bx+si],al
000028C8  0000              add [bx+si],al
000028CA  0000              add [bx+si],al
000028CC  0000              add [bx+si],al
000028CE  0000              add [bx+si],al
000028D0  0000              add [bx+si],al
000028D2  0000              add [bx+si],al
000028D4  0000              add [bx+si],al
000028D6  0000              add [bx+si],al
000028D8  0000              add [bx+si],al
000028DA  0000              add [bx+si],al
000028DC  0000              add [bx+si],al
000028DE  0000              add [bx+si],al
000028E0  0000              add [bx+si],al
000028E2  0000              add [bx+si],al
000028E4  0000              add [bx+si],al
000028E6  0000              add [bx+si],al
000028E8  0000              add [bx+si],al
000028EA  0000              add [bx+si],al
000028EC  0000              add [bx+si],al
000028EE  0000              add [bx+si],al
000028F0  0000              add [bx+si],al
000028F2  0000              add [bx+si],al
000028F4  0000              add [bx+si],al
000028F6  0000              add [bx+si],al
000028F8  0000              add [bx+si],al
000028FA  0000              add [bx+si],al
000028FC  0000              add [bx+si],al
000028FE  0000              add [bx+si],al
00002900  0000              add [bx+si],al
00002902  0000              add [bx+si],al
00002904  0000              add [bx+si],al
00002906  0000              add [bx+si],al
00002908  0000              add [bx+si],al
0000290A  0000              add [bx+si],al
0000290C  0000              add [bx+si],al
0000290E  0000              add [bx+si],al
00002910  0000              add [bx+si],al
00002912  0000              add [bx+si],al
00002914  0000              add [bx+si],al
00002916  0000              add [bx+si],al
00002918  0000              add [bx+si],al
0000291A  0000              add [bx+si],al
0000291C  0000              add [bx+si],al
0000291E  0000              add [bx+si],al
00002920  0000              add [bx+si],al
00002922  0000              add [bx+si],al
00002924  0000              add [bx+si],al
00002926  0000              add [bx+si],al
00002928  0000              add [bx+si],al
0000292A  0000              add [bx+si],al
0000292C  0000              add [bx+si],al
0000292E  0000              add [bx+si],al
00002930  0000              add [bx+si],al
00002932  0000              add [bx+si],al
00002934  0000              add [bx+si],al
00002936  0000              add [bx+si],al
00002938  0000              add [bx+si],al
0000293A  0000              add [bx+si],al
0000293C  0000              add [bx+si],al
0000293E  0000              add [bx+si],al
00002940  0000              add [bx+si],al
00002942  0000              add [bx+si],al
00002944  0000              add [bx+si],al
00002946  0000              add [bx+si],al
00002948  0000              add [bx+si],al
0000294A  0000              add [bx+si],al
0000294C  0000              add [bx+si],al
0000294E  0000              add [bx+si],al
00002950  0000              add [bx+si],al
00002952  0000              add [bx+si],al
00002954  0000              add [bx+si],al
00002956  0000              add [bx+si],al
00002958  0000              add [bx+si],al
0000295A  0000              add [bx+si],al
0000295C  0000              add [bx+si],al
0000295E  0000              add [bx+si],al
00002960  0000              add [bx+si],al
00002962  0000              add [bx+si],al
00002964  0000              add [bx+si],al
00002966  0000              add [bx+si],al
00002968  0000              add [bx+si],al
0000296A  0000              add [bx+si],al
0000296C  0000              add [bx+si],al
0000296E  0000              add [bx+si],al
00002970  0000              add [bx+si],al
00002972  0000              add [bx+si],al
00002974  0000              add [bx+si],al
00002976  0000              add [bx+si],al
00002978  0000              add [bx+si],al
0000297A  0000              add [bx+si],al
0000297C  0000              add [bx+si],al
0000297E  0000              add [bx+si],al
00002980  0000              add [bx+si],al
00002982  0000              add [bx+si],al
00002984  0000              add [bx+si],al
00002986  0000              add [bx+si],al
00002988  0000              add [bx+si],al
0000298A  0000              add [bx+si],al
0000298C  0000              add [bx+si],al
0000298E  0000              add [bx+si],al
00002990  0000              add [bx+si],al
00002992  0000              add [bx+si],al
00002994  0000              add [bx+si],al
00002996  0000              add [bx+si],al
00002998  0000              add [bx+si],al
0000299A  0000              add [bx+si],al
0000299C  0000              add [bx+si],al
0000299E  0000              add [bx+si],al
000029A0  0000              add [bx+si],al
000029A2  0000              add [bx+si],al
000029A4  0000              add [bx+si],al
000029A6  0000              add [bx+si],al
000029A8  0000              add [bx+si],al
000029AA  0000              add [bx+si],al
000029AC  0000              add [bx+si],al
000029AE  0000              add [bx+si],al
000029B0  0000              add [bx+si],al
000029B2  0000              add [bx+si],al
000029B4  0000              add [bx+si],al
000029B6  0000              add [bx+si],al
000029B8  0000              add [bx+si],al
000029BA  0000              add [bx+si],al
000029BC  0000              add [bx+si],al
000029BE  0000              add [bx+si],al
000029C0  0000              add [bx+si],al
000029C2  0000              add [bx+si],al
000029C4  0000              add [bx+si],al
000029C6  0000              add [bx+si],al
000029C8  0000              add [bx+si],al
000029CA  0000              add [bx+si],al
000029CC  0000              add [bx+si],al
000029CE  0000              add [bx+si],al
000029D0  0000              add [bx+si],al
000029D2  0000              add [bx+si],al
000029D4  0000              add [bx+si],al
000029D6  0000              add [bx+si],al
000029D8  0000              add [bx+si],al
000029DA  0000              add [bx+si],al
000029DC  0000              add [bx+si],al
000029DE  0000              add [bx+si],al
000029E0  0000              add [bx+si],al
000029E2  0000              add [bx+si],al
000029E4  0000              add [bx+si],al
000029E6  0000              add [bx+si],al
000029E8  0000              add [bx+si],al
000029EA  0000              add [bx+si],al
000029EC  0000              add [bx+si],al
000029EE  0000              add [bx+si],al
000029F0  0000              add [bx+si],al
000029F2  0000              add [bx+si],al
000029F4  0000              add [bx+si],al
000029F6  0000              add [bx+si],al
000029F8  0000              add [bx+si],al
000029FA  0000              add [bx+si],al
000029FC  0000              add [bx+si],al
000029FE  0000              add [bx+si],al
00002A00  0000              add [bx+si],al
00002A02  0000              add [bx+si],al
00002A04  0000              add [bx+si],al
00002A06  0000              add [bx+si],al
00002A08  0000              add [bx+si],al
00002A0A  0000              add [bx+si],al
00002A0C  0000              add [bx+si],al
00002A0E  0000              add [bx+si],al
00002A10  0000              add [bx+si],al
00002A12  0000              add [bx+si],al
00002A14  0000              add [bx+si],al
00002A16  0000              add [bx+si],al
00002A18  0000              add [bx+si],al
00002A1A  0000              add [bx+si],al
00002A1C  0000              add [bx+si],al
00002A1E  0000              add [bx+si],al
00002A20  0000              add [bx+si],al
00002A22  0000              add [bx+si],al
00002A24  0000              add [bx+si],al
00002A26  0000              add [bx+si],al
00002A28  0000              add [bx+si],al
00002A2A  0000              add [bx+si],al
00002A2C  0000              add [bx+si],al
00002A2E  0000              add [bx+si],al
00002A30  0000              add [bx+si],al
00002A32  0000              add [bx+si],al
00002A34  0000              add [bx+si],al
00002A36  0000              add [bx+si],al
00002A38  0000              add [bx+si],al
00002A3A  0000              add [bx+si],al
00002A3C  0000              add [bx+si],al
00002A3E  0000              add [bx+si],al
00002A40  0000              add [bx+si],al
00002A42  0000              add [bx+si],al
00002A44  0000              add [bx+si],al
00002A46  0000              add [bx+si],al
00002A48  0000              add [bx+si],al
00002A4A  0000              add [bx+si],al
00002A4C  0000              add [bx+si],al
00002A4E  0000              add [bx+si],al
00002A50  0000              add [bx+si],al
00002A52  0000              add [bx+si],al
00002A54  0000              add [bx+si],al
00002A56  0000              add [bx+si],al
00002A58  0000              add [bx+si],al
00002A5A  0000              add [bx+si],al
00002A5C  0000              add [bx+si],al
00002A5E  0000              add [bx+si],al
00002A60  0000              add [bx+si],al
00002A62  0000              add [bx+si],al
00002A64  0000              add [bx+si],al
00002A66  0000              add [bx+si],al
00002A68  0000              add [bx+si],al
00002A6A  0000              add [bx+si],al
00002A6C  0000              add [bx+si],al
00002A6E  0000              add [bx+si],al
00002A70  0000              add [bx+si],al
00002A72  0000              add [bx+si],al
00002A74  0000              add [bx+si],al
00002A76  0000              add [bx+si],al
00002A78  0000              add [bx+si],al
00002A7A  0000              add [bx+si],al
00002A7C  0000              add [bx+si],al
00002A7E  0000              add [bx+si],al
00002A80  0000              add [bx+si],al
00002A82  0000              add [bx+si],al
00002A84  0000              add [bx+si],al
00002A86  0000              add [bx+si],al
00002A88  0000              add [bx+si],al
00002A8A  0000              add [bx+si],al
00002A8C  0000              add [bx+si],al
00002A8E  0000              add [bx+si],al
00002A90  0000              add [bx+si],al
00002A92  0000              add [bx+si],al
00002A94  0000              add [bx+si],al
00002A96  0000              add [bx+si],al
00002A98  0000              add [bx+si],al
00002A9A  0000              add [bx+si],al
00002A9C  0000              add [bx+si],al
00002A9E  0000              add [bx+si],al
00002AA0  0000              add [bx+si],al
00002AA2  0000              add [bx+si],al
00002AA4  0000              add [bx+si],al
00002AA6  0000              add [bx+si],al
00002AA8  0000              add [bx+si],al
00002AAA  0000              add [bx+si],al
00002AAC  0000              add [bx+si],al
00002AAE  0000              add [bx+si],al
00002AB0  0000              add [bx+si],al
00002AB2  0000              add [bx+si],al
00002AB4  0000              add [bx+si],al
00002AB6  0000              add [bx+si],al
00002AB8  0000              add [bx+si],al
00002ABA  0000              add [bx+si],al
00002ABC  0000              add [bx+si],al
00002ABE  0000              add [bx+si],al
00002AC0  0000              add [bx+si],al
00002AC2  0000              add [bx+si],al
00002AC4  0000              add [bx+si],al
00002AC6  0000              add [bx+si],al
00002AC8  0000              add [bx+si],al
00002ACA  0000              add [bx+si],al
00002ACC  0000              add [bx+si],al
00002ACE  0000              add [bx+si],al
00002AD0  0000              add [bx+si],al
00002AD2  0000              add [bx+si],al
00002AD4  0000              add [bx+si],al
00002AD6  0000              add [bx+si],al
00002AD8  0000              add [bx+si],al
00002ADA  0000              add [bx+si],al
00002ADC  0000              add [bx+si],al
00002ADE  0000              add [bx+si],al
00002AE0  0000              add [bx+si],al
00002AE2  0000              add [bx+si],al
00002AE4  0000              add [bx+si],al
00002AE6  0000              add [bx+si],al
00002AE8  0000              add [bx+si],al
00002AEA  0000              add [bx+si],al
00002AEC  0000              add [bx+si],al
00002AEE  0000              add [bx+si],al
00002AF0  0000              add [bx+si],al
00002AF2  0000              add [bx+si],al
00002AF4  0000              add [bx+si],al
00002AF6  0000              add [bx+si],al
00002AF8  0000              add [bx+si],al
00002AFA  0000              add [bx+si],al
00002AFC  0000              add [bx+si],al
00002AFE  0000              add [bx+si],al
00002B00  0000              add [bx+si],al
00002B02  0000              add [bx+si],al
00002B04  0000              add [bx+si],al
00002B06  0000              add [bx+si],al
00002B08  0000              add [bx+si],al
00002B0A  0000              add [bx+si],al
00002B0C  0000              add [bx+si],al
00002B0E  0000              add [bx+si],al
00002B10  0000              add [bx+si],al
00002B12  0000              add [bx+si],al
00002B14  0000              add [bx+si],al
00002B16  0000              add [bx+si],al
00002B18  0000              add [bx+si],al
00002B1A  0000              add [bx+si],al
00002B1C  0000              add [bx+si],al
00002B1E  0000              add [bx+si],al
00002B20  0000              add [bx+si],al
00002B22  0000              add [bx+si],al
00002B24  0000              add [bx+si],al
00002B26  0000              add [bx+si],al
00002B28  0000              add [bx+si],al
00002B2A  0000              add [bx+si],al
00002B2C  0000              add [bx+si],al
00002B2E  0000              add [bx+si],al
00002B30  0000              add [bx+si],al
00002B32  0000              add [bx+si],al
00002B34  0000              add [bx+si],al
00002B36  0000              add [bx+si],al
00002B38  0000              add [bx+si],al
00002B3A  0000              add [bx+si],al
00002B3C  0000              add [bx+si],al
00002B3E  0000              add [bx+si],al
00002B40  0000              add [bx+si],al
00002B42  0000              add [bx+si],al
00002B44  0000              add [bx+si],al
00002B46  0000              add [bx+si],al
00002B48  0000              add [bx+si],al
00002B4A  0000              add [bx+si],al
00002B4C  0000              add [bx+si],al
00002B4E  0000              add [bx+si],al
00002B50  0000              add [bx+si],al
00002B52  0000              add [bx+si],al
00002B54  0000              add [bx+si],al
00002B56  0000              add [bx+si],al
00002B58  0000              add [bx+si],al
00002B5A  0000              add [bx+si],al
00002B5C  0000              add [bx+si],al
00002B5E  0000              add [bx+si],al
00002B60  0000              add [bx+si],al
00002B62  0000              add [bx+si],al
00002B64  0000              add [bx+si],al
00002B66  0000              add [bx+si],al
00002B68  0000              add [bx+si],al
00002B6A  0000              add [bx+si],al
00002B6C  0000              add [bx+si],al
00002B6E  0000              add [bx+si],al
00002B70  0000              add [bx+si],al
00002B72  0000              add [bx+si],al
00002B74  0000              add [bx+si],al
00002B76  0000              add [bx+si],al
00002B78  0000              add [bx+si],al
00002B7A  0000              add [bx+si],al
00002B7C  0000              add [bx+si],al
00002B7E  0000              add [bx+si],al
00002B80  0000              add [bx+si],al
00002B82  0000              add [bx+si],al
00002B84  0000              add [bx+si],al
00002B86  0000              add [bx+si],al
00002B88  0000              add [bx+si],al
00002B8A  0000              add [bx+si],al
00002B8C  0000              add [bx+si],al
00002B8E  0000              add [bx+si],al
00002B90  0000              add [bx+si],al
00002B92  0000              add [bx+si],al
00002B94  0000              add [bx+si],al
00002B96  0000              add [bx+si],al
00002B98  0000              add [bx+si],al
00002B9A  0000              add [bx+si],al
00002B9C  0000              add [bx+si],al
00002B9E  0000              add [bx+si],al
00002BA0  0000              add [bx+si],al
00002BA2  0000              add [bx+si],al
00002BA4  0000              add [bx+si],al
00002BA6  0000              add [bx+si],al
00002BA8  0000              add [bx+si],al
00002BAA  0000              add [bx+si],al
00002BAC  0000              add [bx+si],al
00002BAE  0000              add [bx+si],al
00002BB0  0000              add [bx+si],al
00002BB2  0000              add [bx+si],al
00002BB4  0000              add [bx+si],al
00002BB6  0000              add [bx+si],al
00002BB8  0000              add [bx+si],al
00002BBA  0000              add [bx+si],al
00002BBC  0000              add [bx+si],al
00002BBE  0000              add [bx+si],al
00002BC0  0000              add [bx+si],al
00002BC2  0000              add [bx+si],al
00002BC4  0000              add [bx+si],al
00002BC6  0000              add [bx+si],al
00002BC8  0000              add [bx+si],al
00002BCA  0000              add [bx+si],al
00002BCC  0000              add [bx+si],al
00002BCE  0000              add [bx+si],al
00002BD0  0000              add [bx+si],al
00002BD2  0000              add [bx+si],al
00002BD4  0000              add [bx+si],al
00002BD6  0000              add [bx+si],al
00002BD8  0000              add [bx+si],al
00002BDA  0000              add [bx+si],al
00002BDC  0000              add [bx+si],al
00002BDE  0000              add [bx+si],al
00002BE0  0000              add [bx+si],al
00002BE2  0000              add [bx+si],al
00002BE4  0000              add [bx+si],al
00002BE6  0000              add [bx+si],al
00002BE8  0000              add [bx+si],al
00002BEA  0000              add [bx+si],al
00002BEC  0000              add [bx+si],al
00002BEE  0000              add [bx+si],al
00002BF0  0000              add [bx+si],al
00002BF2  0000              add [bx+si],al
00002BF4  0000              add [bx+si],al
00002BF6  0000              add [bx+si],al
00002BF8  0000              add [bx+si],al
00002BFA  0000              add [bx+si],al
00002BFC  0000              add [bx+si],al
00002BFE  0000              add [bx+si],al
00002C00  0000              add [bx+si],al
00002C02  0000              add [bx+si],al
00002C04  0000              add [bx+si],al
00002C06  0000              add [bx+si],al
00002C08  0000              add [bx+si],al
00002C0A  0000              add [bx+si],al
00002C0C  0000              add [bx+si],al
00002C0E  0000              add [bx+si],al
00002C10  0000              add [bx+si],al
00002C12  0000              add [bx+si],al
00002C14  0000              add [bx+si],al
00002C16  0000              add [bx+si],al
00002C18  0000              add [bx+si],al
00002C1A  0000              add [bx+si],al
00002C1C  0000              add [bx+si],al
00002C1E  0000              add [bx+si],al
00002C20  0000              add [bx+si],al
00002C22  0000              add [bx+si],al
00002C24  0000              add [bx+si],al
00002C26  0000              add [bx+si],al
00002C28  0000              add [bx+si],al
00002C2A  0000              add [bx+si],al
00002C2C  0000              add [bx+si],al
00002C2E  0000              add [bx+si],al
00002C30  0000              add [bx+si],al
00002C32  0000              add [bx+si],al
00002C34  0000              add [bx+si],al
00002C36  0000              add [bx+si],al
00002C38  0000              add [bx+si],al
00002C3A  0000              add [bx+si],al
00002C3C  0000              add [bx+si],al
00002C3E  0000              add [bx+si],al
00002C40  0000              add [bx+si],al
00002C42  0000              add [bx+si],al
00002C44  0000              add [bx+si],al
00002C46  0000              add [bx+si],al
00002C48  0000              add [bx+si],al
00002C4A  0000              add [bx+si],al
00002C4C  0000              add [bx+si],al
00002C4E  0000              add [bx+si],al
00002C50  0000              add [bx+si],al
00002C52  0000              add [bx+si],al
00002C54  0000              add [bx+si],al
00002C56  0000              add [bx+si],al
00002C58  0000              add [bx+si],al
00002C5A  0000              add [bx+si],al
00002C5C  0000              add [bx+si],al
00002C5E  0000              add [bx+si],al
00002C60  0000              add [bx+si],al
00002C62  0000              add [bx+si],al
00002C64  0000              add [bx+si],al
00002C66  0000              add [bx+si],al
00002C68  0000              add [bx+si],al
00002C6A  0000              add [bx+si],al
00002C6C  0000              add [bx+si],al
00002C6E  0000              add [bx+si],al
00002C70  0000              add [bx+si],al
00002C72  0000              add [bx+si],al
00002C74  0000              add [bx+si],al
00002C76  0000              add [bx+si],al
00002C78  0000              add [bx+si],al
00002C7A  0000              add [bx+si],al
00002C7C  0000              add [bx+si],al
00002C7E  0000              add [bx+si],al
00002C80  0000              add [bx+si],al
00002C82  0000              add [bx+si],al
00002C84  0000              add [bx+si],al
00002C86  0000              add [bx+si],al
00002C88  0000              add [bx+si],al
00002C8A  0000              add [bx+si],al
00002C8C  0000              add [bx+si],al
00002C8E  0000              add [bx+si],al
00002C90  0000              add [bx+si],al
00002C92  0000              add [bx+si],al
00002C94  0000              add [bx+si],al
00002C96  0000              add [bx+si],al
00002C98  0000              add [bx+si],al
00002C9A  0000              add [bx+si],al
00002C9C  0000              add [bx+si],al
00002C9E  0000              add [bx+si],al
00002CA0  0000              add [bx+si],al
00002CA2  0000              add [bx+si],al
00002CA4  0000              add [bx+si],al
00002CA6  0000              add [bx+si],al
00002CA8  0000              add [bx+si],al
00002CAA  0000              add [bx+si],al
00002CAC  0000              add [bx+si],al
00002CAE  0000              add [bx+si],al
00002CB0  0000              add [bx+si],al
00002CB2  0000              add [bx+si],al
00002CB4  0000              add [bx+si],al
00002CB6  0000              add [bx+si],al
00002CB8  0000              add [bx+si],al
00002CBA  0000              add [bx+si],al
00002CBC  0000              add [bx+si],al
00002CBE  0000              add [bx+si],al
00002CC0  0000              add [bx+si],al
00002CC2  0000              add [bx+si],al
00002CC4  0000              add [bx+si],al
00002CC6  0000              add [bx+si],al
00002CC8  0000              add [bx+si],al
00002CCA  0000              add [bx+si],al
00002CCC  0000              add [bx+si],al
00002CCE  0000              add [bx+si],al
00002CD0  0000              add [bx+si],al
00002CD2  0000              add [bx+si],al
00002CD4  0000              add [bx+si],al
00002CD6  0000              add [bx+si],al
00002CD8  0000              add [bx+si],al
00002CDA  0000              add [bx+si],al
00002CDC  0000              add [bx+si],al
00002CDE  0000              add [bx+si],al
00002CE0  0000              add [bx+si],al
00002CE2  0000              add [bx+si],al
00002CE4  0000              add [bx+si],al
00002CE6  0000              add [bx+si],al
00002CE8  0000              add [bx+si],al
00002CEA  0000              add [bx+si],al
00002CEC  0000              add [bx+si],al
00002CEE  0000              add [bx+si],al
00002CF0  0000              add [bx+si],al
00002CF2  0000              add [bx+si],al
00002CF4  0000              add [bx+si],al
00002CF6  0000              add [bx+si],al
00002CF8  0000              add [bx+si],al
00002CFA  0000              add [bx+si],al
00002CFC  0000              add [bx+si],al
00002CFE  0000              add [bx+si],al
00002D00  0000              add [bx+si],al
00002D02  0000              add [bx+si],al
00002D04  0000              add [bx+si],al
00002D06  0000              add [bx+si],al
00002D08  0000              add [bx+si],al
00002D0A  0000              add [bx+si],al
00002D0C  0000              add [bx+si],al
00002D0E  0000              add [bx+si],al
00002D10  0000              add [bx+si],al
00002D12  0000              add [bx+si],al
00002D14  0000              add [bx+si],al
00002D16  0000              add [bx+si],al
00002D18  0000              add [bx+si],al
00002D1A  0000              add [bx+si],al
00002D1C  0000              add [bx+si],al
00002D1E  0000              add [bx+si],al
00002D20  0000              add [bx+si],al
00002D22  0000              add [bx+si],al
00002D24  0000              add [bx+si],al
00002D26  0000              add [bx+si],al
00002D28  0000              add [bx+si],al
00002D2A  0000              add [bx+si],al
00002D2C  0000              add [bx+si],al
00002D2E  0000              add [bx+si],al
00002D30  0000              add [bx+si],al
00002D32  0000              add [bx+si],al
00002D34  0000              add [bx+si],al
00002D36  0000              add [bx+si],al
00002D38  0000              add [bx+si],al
00002D3A  0000              add [bx+si],al
00002D3C  0000              add [bx+si],al
00002D3E  0000              add [bx+si],al
00002D40  0000              add [bx+si],al
00002D42  0000              add [bx+si],al
00002D44  0000              add [bx+si],al
00002D46  0000              add [bx+si],al
00002D48  0000              add [bx+si],al
00002D4A  0000              add [bx+si],al
00002D4C  0000              add [bx+si],al
00002D4E  0000              add [bx+si],al
00002D50  0000              add [bx+si],al
00002D52  0000              add [bx+si],al
00002D54  0000              add [bx+si],al
00002D56  0000              add [bx+si],al
00002D58  0000              add [bx+si],al
00002D5A  0000              add [bx+si],al
00002D5C  0000              add [bx+si],al
00002D5E  0000              add [bx+si],al
00002D60  0000              add [bx+si],al
00002D62  0000              add [bx+si],al
00002D64  0000              add [bx+si],al
00002D66  0000              add [bx+si],al
00002D68  0000              add [bx+si],al
00002D6A  0000              add [bx+si],al
00002D6C  0000              add [bx+si],al
00002D6E  0000              add [bx+si],al
00002D70  0000              add [bx+si],al
00002D72  0000              add [bx+si],al
00002D74  0000              add [bx+si],al
00002D76  0000              add [bx+si],al
00002D78  0000              add [bx+si],al
00002D7A  0000              add [bx+si],al
00002D7C  0000              add [bx+si],al
00002D7E  0000              add [bx+si],al
00002D80  0000              add [bx+si],al
00002D82  0000              add [bx+si],al
00002D84  0000              add [bx+si],al
00002D86  0000              add [bx+si],al
00002D88  0000              add [bx+si],al
00002D8A  0000              add [bx+si],al
00002D8C  0000              add [bx+si],al
00002D8E  0000              add [bx+si],al
00002D90  0000              add [bx+si],al
00002D92  0000              add [bx+si],al
00002D94  0000              add [bx+si],al
00002D96  0000              add [bx+si],al
00002D98  0000              add [bx+si],al
00002D9A  0000              add [bx+si],al
00002D9C  0000              add [bx+si],al
00002D9E  0000              add [bx+si],al
00002DA0  0000              add [bx+si],al
00002DA2  0000              add [bx+si],al
00002DA4  0000              add [bx+si],al
00002DA6  0000              add [bx+si],al
00002DA8  0000              add [bx+si],al
00002DAA  0000              add [bx+si],al
00002DAC  0000              add [bx+si],al
00002DAE  0000              add [bx+si],al
00002DB0  0000              add [bx+si],al
00002DB2  0000              add [bx+si],al
00002DB4  0000              add [bx+si],al
00002DB6  0000              add [bx+si],al
00002DB8  0000              add [bx+si],al
00002DBA  0000              add [bx+si],al
00002DBC  0000              add [bx+si],al
00002DBE  0000              add [bx+si],al
00002DC0  0000              add [bx+si],al
00002DC2  0000              add [bx+si],al
00002DC4  0000              add [bx+si],al
00002DC6  0000              add [bx+si],al
00002DC8  0000              add [bx+si],al
00002DCA  0000              add [bx+si],al
00002DCC  0000              add [bx+si],al
00002DCE  0000              add [bx+si],al
00002DD0  3011              xor [bx+di],dl
00002DD2  0000              add [bx+si],al
00002DD4  0000              add [bx+si],al
00002DD6  0000              add [bx+si],al
00002DD8  E010              loopne 0x2dea
00002DDA  0000              add [bx+si],al
00002DDC  0000              add [bx+si],al
00002DDE  0000              add [bx+si],al
00002DE0  0100              add [bx+si],ax
00002DE2  0000              add [bx+si],al
00002DE4  0000              add [bx+si],al
00002DE6  0000              add [bx+si],al
00002DE8  2900              sub [bx+si],ax
00002DEA  0000              add [bx+si],al
00002DEC  0000              add [bx+si],al
00002DEE  0000              add [bx+si],al
00002DF0  0C00              or al,0x0
00002DF2  0000              add [bx+si],al
00002DF4  0000              add [bx+si],al
00002DF6  0000              add [bx+si],al
00002DF8  0010              add [bx+si],dl
00002DFA  0000              add [bx+si],al
00002DFC  0000              add [bx+si],al
00002DFE  0000              add [bx+si],al
00002E00  0D0000            or ax,0x0
00002E03  0000              add [bx+si],al
00002E05  0000              add [bx+si],al
00002E07  005811            add [bx+si+0x11],bl
00002E0A  0000              add [bx+si],al
00002E0C  0000              add [bx+si],al
00002E0E  0000              add [bx+si],al
00002E10  1900              sbb [bx+si],ax
00002E12  0000              add [bx+si],al
00002E14  0000              add [bx+si],al
00002E16  0000              add [bx+si],al
00002E18  D03D              sar byte [di],1
00002E1A  0000              add [bx+si],al
00002E1C  0000              add [bx+si],al
00002E1E  0000              add [bx+si],al
00002E20  1B00              sbb ax,[bx+si]
00002E22  0000              add [bx+si],al
00002E24  0000              add [bx+si],al
00002E26  0000              add [bx+si],al
00002E28  0800              or [bx+si],al
00002E2A  0000              add [bx+si],al
00002E2C  0000              add [bx+si],al
00002E2E  0000              add [bx+si],al
00002E30  1A00              sbb al,[bx+si]
00002E32  0000              add [bx+si],al
00002E34  0000              add [bx+si],al
00002E36  0000              add [bx+si],al
00002E38  D83D              fdivr dword [di]
00002E3A  0000              add [bx+si],al
00002E3C  0000              add [bx+si],al
00002E3E  0000              add [bx+si],al
00002E40  1C00              sbb al,0x0
00002E42  0000              add [bx+si],al
00002E44  0000              add [bx+si],al
00002E46  0000              add [bx+si],al
00002E48  0800              or [bx+si],al
00002E4A  0000              add [bx+si],al
00002E4C  0000              add [bx+si],al
00002E4E  0000              add [bx+si],al
00002E50  F5                cmc
00002E51  FE                db 0xfe
00002E52  FF6F00            jmp far [bx+0x0]
00002E55  0000              add [bx+si],al
00002E57  00C0              add al,al
00002E59  0300              add ax,[bx+si]
00002E5B  0000              add [bx+si],al
00002E5D  0000              add [bx+si],al
00002E5F  0005              add [di],al
00002E61  0000              add [bx+si],al
00002E63  0000              add [bx+si],al
00002E65  0000              add [bx+si],al
00002E67  00880400          add [bx+si+0x4],cl
00002E6B  0000              add [bx+si],al
00002E6D  0000              add [bx+si],al
00002E6F  00060000          add [0x0],al
00002E73  0000              add [bx+si],al
00002E75  0000              add [bx+si],al
00002E77  00E0              add al,ah
00002E79  0300              add ax,[bx+si]
00002E7B  0000              add [bx+si],al
00002E7D  0000              add [bx+si],al
00002E7F  000A              add [bp+si],cl
00002E81  0000              add [bx+si],al
00002E83  0000              add [bx+si],al
00002E85  0000              add [bx+si],al
00002E87  008F0000          add [bx+0x0],cl
00002E8B  0000              add [bx+si],al
00002E8D  0000              add [bx+si],al
00002E8F  000B              add [bp+di],cl
00002E91  0000              add [bx+si],al
00002E93  0000              add [bx+si],al
00002E95  0000              add [bx+si],al
00002E97  0018              add [bx+si],bl
00002E99  0000              add [bx+si],al
00002E9B  0000              add [bx+si],al
00002E9D  0000              add [bx+si],al
00002E9F  0015              add [di],dl
00002EA1  0000              add [bx+si],al
00002EA3  0000              add [bx+si],al
00002EA5  0000              add [bx+si],al
00002EA7  0000              add [bx+si],al
00002EA9  0000              add [bx+si],al
00002EAB  0000              add [bx+si],al
00002EAD  0000              add [bx+si],al
00002EAF  0003              add [bp+di],al
00002EB1  0000              add [bx+si],al
00002EB3  0000              add [bx+si],al
00002EB5  0000              add [bx+si],al
00002EB7  00E8              add al,ch
00002EB9  3F                aas
00002EBA  0000              add [bx+si],al
00002EBC  0000              add [bx+si],al
00002EBE  0000              add [bx+si],al
00002EC0  0200              add al,[bx+si]
00002EC2  0000              add [bx+si],al
00002EC4  0000              add [bx+si],al
00002EC6  0000              add [bx+si],al
00002EC8  1800              sbb [bx+si],al
00002ECA  0000              add [bx+si],al
00002ECC  0000              add [bx+si],al
00002ECE  0000              add [bx+si],al
00002ED0  1400              adc al,0x0
00002ED2  0000              add [bx+si],al
00002ED4  0000              add [bx+si],al
00002ED6  0000              add [bx+si],al
00002ED8  07                pop es
00002ED9  0000              add [bx+si],al
00002EDB  0000              add [bx+si],al
00002EDD  0000              add [bx+si],al
00002EDF  0017              add [bx],dl
00002EE1  0000              add [bx+si],al
00002EE3  0000              add [bx+si],al
00002EE5  0000              add [bx+si],al
00002EE7  0018              add [bx+si],bl
00002EE9  06                push es
00002EEA  0000              add [bx+si],al
00002EEC  0000              add [bx+si],al
00002EEE  0000              add [bx+si],al
00002EF0  07                pop es
00002EF1  0000              add [bx+si],al
00002EF3  0000              add [bx+si],al
00002EF5  0000              add [bx+si],al
00002EF7  005805            add [bx+si+0x5],bl
00002EFA  0000              add [bx+si],al
00002EFC  0000              add [bx+si],al
00002EFE  0000              add [bx+si],al
00002F00  0800              or [bx+si],al
00002F02  0000              add [bx+si],al
00002F04  0000              add [bx+si],al
00002F06  0000              add [bx+si],al
00002F08  C00000            rol byte [bx+si],byte 0x0
00002F0B  0000              add [bx+si],al
00002F0D  0000              add [bx+si],al
00002F0F  0009              add [bx+di],cl
00002F11  0000              add [bx+si],al
00002F13  0000              add [bx+si],al
00002F15  0000              add [bx+si],al
00002F17  0018              add [bx+si],bl
00002F19  0000              add [bx+si],al
00002F1B  0000              add [bx+si],al
00002F1D  0000              add [bx+si],al
00002F1F  00FB              add bl,bh
00002F21  FF                db 0xff
00002F22  FF6F00            jmp far [bx+0x0]
00002F25  0000              add [bx+si],al
00002F27  0000              add [bx+si],al
00002F29  0000              add [bx+si],al
00002F2B  0800              or [bx+si],al
00002F2D  0000              add [bx+si],al
00002F2F  00FE              add dh,bh
00002F31  FF                db 0xff
00002F32  FF6F00            jmp far [bx+0x0]
00002F35  0000              add [bx+si],al
00002F37  0028              add [bx+si],ch
00002F39  050000            add ax,0x0
00002F3C  0000              add [bx+si],al
00002F3E  0000              add [bx+si],al
00002F40  FF                db 0xff
00002F41  FF                db 0xff
00002F42  FF6F00            jmp far [bx+0x0]
00002F45  0000              add [bx+si],al
00002F47  0001              add [bx+di],al
00002F49  0000              add [bx+si],al
00002F4B  0000              add [bx+si],al
00002F4D  0000              add [bx+si],al
00002F4F  00F0              add al,dh
00002F51  FF                db 0xff
00002F52  FF6F00            jmp far [bx+0x0]
00002F55  0000              add [bx+si],al
00002F57  0018              add [bx+si],bl
00002F59  050000            add ax,0x0
00002F5C  0000              add [bx+si],al
00002F5E  0000              add [bx+si],al
00002F60  F9                stc
00002F61  FF                db 0xff
00002F62  FF6F00            jmp far [bx+0x0]
00002F65  0000              add [bx+si],al
00002F67  0003              add [bp+di],al
00002F69  0000              add [bx+si],al
00002F6B  0000              add [bx+si],al
00002F6D  0000              add [bx+si],al
00002F6F  0000              add [bx+si],al
00002F71  0000              add [bx+si],al
00002F73  0000              add [bx+si],al
00002F75  0000              add [bx+si],al
00002F77  0000              add [bx+si],al
00002F79  0000              add [bx+si],al
00002F7B  0000              add [bx+si],al
00002F7D  0000              add [bx+si],al
00002F7F  0000              add [bx+si],al
00002F81  0000              add [bx+si],al
00002F83  0000              add [bx+si],al
00002F85  0000              add [bx+si],al
00002F87  0000              add [bx+si],al
00002F89  0000              add [bx+si],al
00002F8B  0000              add [bx+si],al
00002F8D  0000              add [bx+si],al
00002F8F  0000              add [bx+si],al
00002F91  0000              add [bx+si],al
00002F93  0000              add [bx+si],al
00002F95  0000              add [bx+si],al
00002F97  0000              add [bx+si],al
00002F99  0000              add [bx+si],al
00002F9B  0000              add [bx+si],al
00002F9D  0000              add [bx+si],al
00002F9F  0000              add [bx+si],al
00002FA1  0000              add [bx+si],al
00002FA3  0000              add [bx+si],al
00002FA5  0000              add [bx+si],al
00002FA7  0000              add [bx+si],al
00002FA9  0000              add [bx+si],al
00002FAB  0000              add [bx+si],al
00002FAD  0000              add [bx+si],al
00002FAF  0000              add [bx+si],al
00002FB1  0000              add [bx+si],al
00002FB3  0000              add [bx+si],al
00002FB5  0000              add [bx+si],al
00002FB7  0000              add [bx+si],al
00002FB9  0000              add [bx+si],al
00002FBB  0000              add [bx+si],al
00002FBD  0000              add [bx+si],al
00002FBF  0000              add [bx+si],al
00002FC1  0000              add [bx+si],al
00002FC3  0000              add [bx+si],al
00002FC5  0000              add [bx+si],al
00002FC7  0000              add [bx+si],al
00002FC9  0000              add [bx+si],al
00002FCB  0000              add [bx+si],al
00002FCD  0000              add [bx+si],al
00002FCF  0000              add [bx+si],al
00002FD1  0000              add [bx+si],al
00002FD3  0000              add [bx+si],al
00002FD5  0000              add [bx+si],al
00002FD7  0000              add [bx+si],al
00002FD9  0000              add [bx+si],al
00002FDB  0000              add [bx+si],al
00002FDD  0000              add [bx+si],al
00002FDF  0000              add [bx+si],al
00002FE1  0000              add [bx+si],al
00002FE3  0000              add [bx+si],al
00002FE5  0000              add [bx+si],al
00002FE7  00E0              add al,ah
00002FE9  3D0000            cmp ax,0x0
00002FEC  0000              add [bx+si],al
00002FEE  0000              add [bx+si],al
00002FF0  0000              add [bx+si],al
00002FF2  0000              add [bx+si],al
00002FF4  0000              add [bx+si],al
00002FF6  0000              add [bx+si],al
00002FF8  0000              add [bx+si],al
00002FFA  0000              add [bx+si],al
00002FFC  0000              add [bx+si],al
00002FFE  0000              add [bx+si],al
00003000  361000            adc [ss:bx+si],al
00003003  0000              add [bx+si],al
00003005  0000              add [bx+si],al
00003007  0000              add [bx+si],al
00003009  0000              add [bx+si],al
0000300B  0000              add [bx+si],al
0000300D  0000              add [bx+si],al
0000300F  0010              add [bx+si],dl
00003011  40                inc ax
00003012  0000              add [bx+si],al
00003014  0000              add [bx+si],al
00003016  0000              add [bx+si],al
00003018  47                inc di
00003019  43                inc bx
0000301A  43                inc bx
0000301B  3A20              cmp ah,[bx+si]
0000301D  28474E            sub [bx+0x4e],al
00003020  55                push bp
00003021  2920              sub [bx+si],sp
00003023  3134              xor [si],si
00003025  2E312E3120        xor [cs:0x2031],bp
0000302A  3230              xor dh,[bx+si]
0000302C  3234              xor dh,[si]
0000302E  3035              xor [di],dh
00003030  3037              xor [bx],dh
00003032  004743            add [bx+0x43],al
00003035  43                inc bx
00003036  3A20              cmp ah,[bx+si]
00003038  28474E            sub [bx+0x4e],al
0000303B  55                push bp
0000303C  2920              sub [bx+si],sp
0000303E  3134              xor [si],si
00003040  2E312E3120        xor [cs:0x2031],bp
00003045  3230              xor dh,[bx+si]
00003047  3234              xor dh,[si]
00003049  3035              xor [di],dh
0000304B  3232              xor dh,[bp+si]
0000304D  0000              add [bx+si],al
0000304F  0000              add [bx+si],al
00003051  0000              add [bx+si],al
00003053  0000              add [bx+si],al
00003055  0000              add [bx+si],al
00003057  0000              add [bx+si],al
00003059  0000              add [bx+si],al
0000305B  0000              add [bx+si],al
0000305D  0000              add [bx+si],al
0000305F  0000              add [bx+si],al
00003061  0000              add [bx+si],al
00003063  0000              add [bx+si],al
00003065  0000              add [bx+si],al
00003067  0001              add [bx+di],al
00003069  0000              add [bx+si],al
0000306B  0004              add [si],al
0000306D  00F1              add cl,dh
0000306F  FF00              inc word [bx+si]
00003071  0000              add [bx+si],al
00003073  0000              add [bx+si],al
00003075  0000              add [bx+si],al
00003077  0000              add [bx+si],al
00003079  0000              add [bx+si],al
0000307B  0000              add [bx+si],al
0000307D  0000              add [bx+si],al
0000307F  0000              add [bx+si],al
00003081  0000              add [bx+si],al
00003083  0004              add [si],al
00003085  00F1              add cl,dh
00003087  FF00              inc word [bx+si]
00003089  0000              add [bx+si],al
0000308B  0000              add [bx+si],al
0000308D  0000              add [bx+si],al
0000308F  0000              add [bx+si],al
00003091  0000              add [bx+si],al
00003093  0000              add [bx+si],al
00003095  0000              add [bx+si],al
00003097  000E0000          add [0x0],cl
0000309B  0001              add [bx+di],al
0000309D  0015              add [di],dl
0000309F  00E0              add al,ah
000030A1  3D0000            cmp ax,0x0
000030A4  0000              add [bx+si],al
000030A6  0000              add [bx+si],al
000030A8  0000              add [bx+si],al
000030AA  0000              add [bx+si],al
000030AC  0000              add [bx+si],al
000030AE  0000              add [bx+si],al
000030B0  17                pop ss
000030B1  0000              add [bx+si],al
000030B3  0000              add [bx+si],al
000030B5  0011              add [bx+di],dl
000030B7  0018              add [bx+si],bl
000030B9  2000              and [bx+si],al
000030BB  0000              add [bx+si],al
000030BD  0000              add [bx+si],al
000030BF  0000              add [bx+si],al
000030C1  0000              add [bx+si],al
000030C3  0000              add [bx+si],al
000030C5  0000              add [bx+si],al
000030C7  002A              add [bp+si],ch
000030C9  0000              add [bx+si],al
000030CB  0001              add [bx+di],al
000030CD  0017              add [bx],dl
000030CF  00E8              add al,ch
000030D1  3F                aas
000030D2  0000              add [bx+si],al
000030D4  0000              add [bx+si],al
000030D6  0000              add [bx+si],al
000030D8  0000              add [bx+si],al
000030DA  0000              add [bx+si],al
000030DC  0000              add [bx+si],al
000030DE  0000              add [bx+si],al
000030E0  40                inc ax
000030E1  0000              add [bx+si],al
000030E3  0012              add [bp+si],dl
000030E5  0000              add [bx+si],al
000030E7  0000              add [bx+si],al
000030E9  0000              add [bx+si],al
000030EB  0000              add [bx+si],al
000030ED  0000              add [bx+si],al
000030EF  0000              add [bx+si],al
000030F1  0000              add [bx+si],al
000030F3  0000              add [bx+si],al
000030F5  0000              add [bx+si],al
000030F7  005D00            add [di+0x0],bl
000030FA  0000              add [bx+si],al
000030FC  2000              and [bx+si],al
000030FE  0000              add [bx+si],al
00003100  0000              add [bx+si],al
00003102  0000              add [bx+si],al
00003104  0000              add [bx+si],al
00003106  0000              add [bx+si],al
00003108  0000              add [bx+si],al
0000310A  0000              add [bx+si],al
0000310C  0000              add [bx+si],al
0000310E  0000              add [bx+si],al
00003110  9B0000            wait add [bx+si],al
00003113  0020              add [bx+si],ah
00003115  0018              add [bx+si],bl
00003117  0008              add [bx+si],cl
00003119  40                inc ax
0000311A  0000              add [bx+si],al
0000311C  0000              add [bx+si],al
0000311E  0000              add [bx+si],al
00003120  0000              add [bx+si],al
00003122  0000              add [bx+si],al
00003124  0000              add [bx+si],al
00003126  0000              add [bx+si],al
00003128  7900              jns 0x312a
0000312A  0000              add [bx+si],al
0000312C  1000              adc [bx+si],al
0000312E  1800              sbb [bx+si],al
00003130  184000            sbb [bx+si+0x0],al
00003133  0000              add [bx+si],al
00003135  0000              add [bx+si],al
00003137  0000              add [bx+si],al
00003139  0000              add [bx+si],al
0000313B  0000              add [bx+si],al
0000313D  0000              add [bx+si],al
0000313F  00800000          add [bx+si+0x0],al
00003143  0012              add [bp+si],dl
00003145  020F              add cl,[bx]
00003147  005811            add [bx+si+0x11],bl
0000314A  0000              add [bx+si],al
0000314C  0000              add [bx+si],al
0000314E  0000              add [bx+si],al
00003150  0000              add [bx+si],al
00003152  0000              add [bx+si],al
00003154  0000              add [bx+si],al
00003156  0000              add [bx+si],al
00003158  8600              xchg [bx+si],al
0000315A  0000              add [bx+si],al
0000315C  1200              adc al,[bx+si]
0000315E  0000              add [bx+si],al
00003160  0000              add [bx+si],al
00003162  0000              add [bx+si],al
00003164  0000              add [bx+si],al
00003166  0000              add [bx+si],al
00003168  0000              add [bx+si],al
0000316A  0000              add [bx+si],al
0000316C  0000              add [bx+si],al
0000316E  0000              add [bx+si],al
00003170  99                cwd
00003171  0000              add [bx+si],al
00003173  0010              add [bx+si],dl
00003175  0018              add [bx+si],bl
00003177  0008              add [bx+si],cl
00003179  40                inc ax
0000317A  0000              add [bx+si],al
0000317C  0000              add [bx+si],al
0000317E  0000              add [bx+si],al
00003180  0000              add [bx+si],al
00003182  0000              add [bx+si],al
00003184  0000              add [bx+si],al
00003186  0000              add [bx+si],al
00003188  A6                cmpsb
00003189  0000              add [bx+si],al
0000318B  0020              add [bx+si],ah
0000318D  0000              add [bx+si],al
0000318F  0000              add [bx+si],al
00003191  0000              add [bx+si],al
00003193  0000              add [bx+si],al
00003195  0000              add [bx+si],al
00003197  0000              add [bx+si],al
00003199  0000              add [bx+si],al
0000319B  0000              add [bx+si],al
0000319D  0000              add [bx+si],al
0000319F  00B50000          add [di+0x0],dh
000031A3  0011              add [bx+di],dl
000031A5  0218              add bl,[bx+si]
000031A7  0010              add [bx+si],dl
000031A9  40                inc ax
000031AA  0000              add [bx+si],al
000031AC  0000              add [bx+si],al
000031AE  0000              add [bx+si],al
000031B0  0000              add [bx+si],al
000031B2  0000              add [bx+si],al
000031B4  0000              add [bx+si],al
000031B6  0000              add [bx+si],al
000031B8  C20000            ret 0x0
000031BB  0011              add [bx+di],dl
000031BD  0010              add [bx+si],dl
000031BF  0000              add [bx+si],al
000031C1  2000              and [bx+si],al
000031C3  0000              add [bx+si],al
000031C5  0000              add [bx+si],al
000031C7  0004              add [si],al
000031C9  0000              add [bx+si],al
000031CB  0000              add [bx+si],al
000031CD  0000              add [bx+si],al
000031CF  00D1              add cl,dl
000031D1  0000              add [bx+si],al
000031D3  0010              add [bx+si],dl
000031D5  0019              add [bx+di],bl
000031D7  0020              add [bx+si],ah
000031D9  40                inc ax
000031DA  0000              add [bx+si],al
000031DC  0000              add [bx+si],al
000031DE  0000              add [bx+si],al
000031E0  0000              add [bx+si],al
000031E2  0000              add [bx+si],al
000031E4  0000              add [bx+si],al
000031E6  0000              add [bx+si],al
000031E8  9F                lahf
000031E9  0000              add [bx+si],al
000031EB  0012              add [bp+si],dl
000031ED  000E0040          add [0x4000],cl
000031F1  1000              adc [bx+si],al
000031F3  0000              add [bx+si],al
000031F5  0000              add [bx+si],al
000031F7  00260000          add [0x0],ah
000031FB  0000              add [bx+si],al
000031FD  0000              add [bx+si],al
000031FF  00D6              add dh,dl
00003201  0000              add [bx+si],al
00003203  0010              add [bx+si],dl
00003205  0019              add [bx+di],bl
00003207  0018              add [bx+si],bl
00003209  40                inc ax
0000320A  0000              add [bx+si],al
0000320C  0000              add [bx+si],al
0000320E  0000              add [bx+si],al
00003210  0000              add [bx+si],al
00003212  0000              add [bx+si],al
00003214  0000              add [bx+si],al
00003216  0000              add [bx+si],al
00003218  E200              loop 0x321a
0000321A  0000              add [bx+si],al
0000321C  1200              adc al,[bx+si]
0000321E  0E                push cs
0000321F  0039              add [bx+di],bh
00003221  1100              adc [bx+si],ax
00003223  0000              add [bx+si],al
00003225  0000              add [bx+si],al
00003227  001F              add [bx],bl
00003229  0000              add [bx+si],al
0000322B  0000              add [bx+si],al
0000322D  0000              add [bx+si],al
0000322F  00E7              add bh,ah
00003231  0000              add [bx+si],al
00003233  0011              add [bx+di],dl
00003235  0218              add bl,[bx+si]
00003237  0018              add [bx+si],bl
00003239  40                inc ax
0000323A  0000              add [bx+si],al
0000323C  0000              add [bx+si],al
0000323E  0000              add [bx+si],al
00003240  0000              add [bx+si],al
00003242  0000              add [bx+si],al
00003244  0000              add [bx+si],al
00003246  0000              add [bx+si],al
00003248  F30000            rep add [bx+si],al
0000324B  0020              add [bx+si],ah
0000324D  0000              add [bx+si],al
0000324F  0000              add [bx+si],al
00003251  0000              add [bx+si],al
00003253  0000              add [bx+si],al
00003255  0000              add [bx+si],al
00003257  0000              add [bx+si],al
00003259  0000              add [bx+si],al
0000325B  0000              add [bx+si],al
0000325D  0000              add [bx+si],al
0000325F  000D              add [di],cl
00003261  0100              add [bx+si],ax
00003263  0022              add [bp+si],ah
00003265  0000              add [bx+si],al
00003267  0000              add [bx+si],al
00003269  0000              add [bx+si],al
0000326B  0000              add [bx+si],al
0000326D  0000              add [bx+si],al
0000326F  0000              add [bx+si],al
00003271  0000              add [bx+si],al
00003273  0000              add [bx+si],al
00003275  0000              add [bx+si],al
00003277  0028              add [bx+si],ch
00003279  0100              add [bx+si],ax
0000327B  0012              add [bp+si],dl
0000327D  020C              add cl,[si]
0000327F  0000              add [bx+si],al
00003281  1000              adc [bx+si],al
00003283  0000              add [bx+si],al
00003285  0000              add [bx+si],al
00003287  0000              add [bx+si],al
00003289  0000              add [bx+si],al
0000328B  0000              add [bx+si],al
0000328D  0000              add [bx+si],al
0000328F  0000              add [bx+si],al
00003291  68656C            push word 0x6c65
00003294  6C                insb
00003295  6F                outsw
00003296  776F              ja 0x3307
00003298  726C              jc 0x3306
0000329A  642E6300          arpl [cs:bx+si],ax
0000329E  5F                pop di
0000329F  44                inc sp
000032A0  59                pop cx
000032A1  4E                dec si
000032A2  41                inc cx
000032A3  4D                dec bp
000032A4  49                dec cx
000032A5  43                inc bx
000032A6  005F5F            add [bx+0x5f],bl
000032A9  47                inc di
000032AA  4E                dec si
000032AB  55                push bp
000032AC  5F                pop di
000032AD  45                inc bp
000032AE  48                dec ax
000032AF  5F                pop di
000032B0  46                inc si
000032B1  52                push dx
000032B2  41                inc cx
000032B3  4D                dec bp
000032B4  45                inc bp
000032B5  5F                pop di
000032B6  48                dec ax
000032B7  44                inc sp
000032B8  52                push dx
000032B9  005F47            add [bx+0x47],bl
000032BC  4C                dec sp
000032BD  4F                dec di
000032BE  42                inc dx
000032BF  41                inc cx
000032C0  4C                dec sp
000032C1  5F                pop di
000032C2  4F                dec di
000032C3  46                inc si
000032C4  46                inc si
000032C5  53                push bx
000032C6  45                inc bp
000032C7  54                push sp
000032C8  5F                pop di
000032C9  54                push sp
000032CA  41                inc cx
000032CB  42                inc dx
000032CC  4C                dec sp
000032CD  45                inc bp
000032CE  5F                pop di
000032CF  005F5F            add [bx+0x5f],bl
000032D2  6C                insb
000032D3  6962635F73        imul sp,[bp+si+0x63],word 0x735f
000032D8  7461              jz 0x333b
000032DA  7274              jc 0x3350
000032DC  5F                pop di
000032DD  6D                insw
000032DE  61                popa
000032DF  696E40474C        imul bp,[bp+0x40],word 0x4c47
000032E4  49                dec cx
000032E5  42                inc dx
000032E6  43                inc bx
000032E7  5F                pop di
000032E8  322E3334          xor ch,[0x3433]
000032EC  005F49            add [bx+0x49],bl
000032EF  54                push sp
000032F0  4D                dec bp
000032F1  5F                pop di
000032F2  64657265          gs jc 0x335b
000032F6  676973746572      imul si,[ebx+0x74],word 0x7265
000032FC  54                push sp
000032FD  4D                dec bp
000032FE  43                inc bx
000032FF  6C                insb
00003300  6F                outsw
00003301  6E                outsb
00003302  6554              gs push sp
00003304  61                popa
00003305  626C65            bound bp,[si+0x65]
00003308  005F65            add [bx+0x65],bl
0000330B  6461              fs popa
0000330D  7461              jz 0x3370
0000330F  005F66            add [bx+0x66],bl
00003312  696E690070        imul bp,[bp+0x69],word 0x7000
00003317  7269              jc 0x3382
00003319  6E                outsb
0000331A  7466              jz 0x3382
0000331C  40                inc ax
0000331D  47                inc di
0000331E  4C                dec sp
0000331F  49                dec cx
00003320  42                inc dx
00003321  43                inc bx
00003322  5F                pop di
00003323  322E322E          xor ch,[0x2e32]
00003327  35005F            xor ax,0x5f00
0000332A  5F                pop di
0000332B  6461              fs popa
0000332D  7461              jz 0x3390
0000332F  5F                pop di
00003330  7374              jnc 0x33a6
00003332  61                popa
00003333  7274              jc 0x33a9
00003335  005F5F            add [bx+0x5f],bl
00003338  676D              a32 insw
0000333A  6F                outsw
0000333B  6E                outsb
0000333C  5F                pop di
0000333D  7374              jnc 0x33b3
0000333F  61                popa
00003340  7274              jc 0x33b6
00003342  5F                pop di
00003343  5F                pop di
00003344  005F5F            add [bx+0x5f],bl
00003347  64736F            fs jnc 0x33b9
0000334A  5F                pop di
0000334B  68616E            push word 0x6e61
0000334E  646C              fs insb
00003350  65005F49          add [gs:bx+0x49],bl
00003354  4F                dec di
00003355  5F                pop di
00003356  7374              jnc 0x33cc
00003358  64696E5F7573      imul bp,[fs:bp+0x5f],word 0x7375
0000335E  6564005F65        add [fs:bx+0x65],bl
00003363  6E                outsb
00003364  64005F5F          add [fs:bx+0x5f],bl
00003368  627373            bound si,[bp+di+0x73]
0000336B  5F                pop di
0000336C  7374              jnc 0x33e2
0000336E  61                popa
0000336F  7274              jc 0x33e5
00003371  006D61            add [di+0x61],ch
00003374  696E005F5F        imul bp,[bp+0x0],word 0x5f5f
00003379  54                push sp
0000337A  4D                dec bp
0000337B  43                inc bx
0000337C  5F                pop di
0000337D  45                inc bp
0000337E  4E                dec si
0000337F  44                inc sp
00003380  5F                pop di
00003381  5F                pop di
00003382  005F49            add [bx+0x49],bl
00003385  54                push sp
00003386  4D                dec bp
00003387  5F                pop di
00003388  7265              jc 0x33ef
0000338A  676973746572      imul si,[ebx+0x74],word 0x7265
00003390  54                push sp
00003391  4D                dec bp
00003392  43                inc bx
00003393  6C                insb
00003394  6F                outsw
00003395  6E                outsb
00003396  6554              gs push sp
00003398  61                popa
00003399  626C65            bound bp,[si+0x65]
0000339C  005F5F            add [bx+0x5f],bl
0000339F  637861            arpl [bx+si+0x61],di
000033A2  5F                pop di
000033A3  66696E616C697A65  imul ebp,[bp+0x61],dword 0x657a696c
000033AB  40                inc ax
000033AC  47                inc di
000033AD  4C                dec sp
000033AE  49                dec cx
000033AF  42                inc dx
000033B0  43                inc bx
000033B1  5F                pop di
000033B2  322E322E          xor ch,[0x2e32]
000033B6  35005F            xor ax,0x5f00
000033B9  696E697400        imul bp,[bp+0x69],word 0x74
000033BE  002E7379          add [0x7973],ch
000033C2  6D                insw
000033C3  7461              jz 0x3426
000033C5  6200              bound ax,[bx+si]
000033C7  2E7374            cs jnc 0x343e
000033CA  7274              jc 0x3440
000033CC  61                popa
000033CD  6200              bound ax,[bx+si]
000033CF  2E7368            cs jnc 0x343a
000033D2  7374              jnc 0x3448
000033D4  7274              jc 0x344a
000033D6  61                popa
000033D7  6200              bound ax,[bx+si]
000033D9  2E696E746572      imul bp,[cs:bp+0x74],word 0x7265
000033DF  7000              jo 0x33e1
000033E1  2E6E              cs outsb
000033E3  6F                outsw
000033E4  7465              jz 0x344b
000033E6  2E676E            cs a32 outsb
000033E9  752E              jnz 0x3419
000033EB  7072              jo 0x345f
000033ED  6F                outsw
000033EE  7065              jo 0x3455
000033F0  7274              jc 0x3466
000033F2  7900              jns 0x33f4
000033F4  2E6E              cs outsb
000033F6  6F                outsw
000033F7  7465              jz 0x345e
000033F9  2E676E            cs a32 outsb
000033FC  752E              jnz 0x342c
000033FE  627569            bound si,[di+0x69]
00003401  6C                insb
00003402  642D6964          fs sub ax,0x6469
00003406  002E6E6F          add [0x6f6e],ch
0000340A  7465              jz 0x3471
0000340C  2E41              cs inc cx
0000340E  42                inc dx
0000340F  49                dec cx
00003410  2D7461            sub ax,0x6174
00003413  67002E            add [esi],ch
00003416  676E              a32 outsb
00003418  752E              jnz 0x3448
0000341A  686173            push word 0x7361
0000341D  68002E            push word 0x2e00
00003420  64796E            fs jns 0x3491
00003423  7379              jnc 0x349e
00003425  6D                insw
00003426  002E6479          add [0x7964],ch
0000342A  6E                outsb
0000342B  7374              jnc 0x34a1
0000342D  7200              jc 0x342f
0000342F  2E676E            cs a32 outsb
00003432  752E              jnz 0x3462
00003434  7665              jna 0x349b
00003436  7273              jc 0x34ab
00003438  696F6E002E        imul bp,[bx+0x6e],word 0x2e00
0000343D  676E              a32 outsb
0000343F  752E              jnz 0x346f
00003441  7665              jna 0x34a8
00003443  7273              jc 0x34b8
00003445  696F6E5F72        imul bp,[bx+0x6e],word 0x725f
0000344A  002E7265          add [0x6572],ch
0000344E  6C                insb
0000344F  61                popa
00003450  2E64796E          fs jns 0x34c2
00003454  002E7265          add [0x6572],ch
00003458  6C                insb
00003459  61                popa
0000345A  2E706C            cs jo 0x34c9
0000345D  7400              jz 0x345f
0000345F  2E696E697400      imul bp,[cs:bp+0x69],word 0x74
00003465  2E7465            cs jz 0x34cd
00003468  7874              js 0x34de
0000346A  002E6669          add [0x6966],ch
0000346E  6E                outsb
0000346F  69002E72          imul ax,[bx+si],word 0x722e
00003473  6F                outsw
00003474  6461              fs popa
00003476  7461              jz 0x34d9
00003478  002E6568          add [0x6865],ch
0000347C  5F                pop di
0000347D  667261            o32 jc 0x34e1
00003480  6D                insw
00003481  655F              gs pop di
00003483  686472            push word 0x7264
00003486  002E6568          add [0x6865],ch
0000348A  5F                pop di
0000348B  667261            o32 jc 0x34ef
0000348E  6D                insw
0000348F  65002E696E        add [gs:0x6e69],ch
00003494  69745F6172        imul si,[si+0x5f],word 0x7261
00003499  7261              jc 0x34fc
0000349B  7900              jns 0x349d
0000349D  2E66696E695F6172  imul ebp,[cs:bp+0x69],dword 0x7272615f
         -72
000034A6  61                popa
000034A7  7900              jns 0x34a9
000034A9  2E64796E          fs jns 0x351b
000034AD  61                popa
000034AE  6D                insw
000034AF  6963002E67        imul sp,[bp+di+0x0],word 0x672e
000034B4  6F                outsw
000034B5  7400              jz 0x34b7
000034B7  2E676F            cs a32 outsw
000034BA  742E              jz 0x34ea
000034BC  706C              jo 0x352a
000034BE  7400              jz 0x34c0
000034C0  2E6461            fs popa
000034C3  7461              jz 0x3526
000034C5  002E6273          add [0x7362],ch
000034C9  7300              jnc 0x34cb
000034CB  2E636F6D          arpl [cs:bx+0x6d],bp
000034CF  6D                insw
000034D0  656E              gs outsb
000034D2  7400              jz 0x34d4
000034D4  0000              add [bx+si],al
000034D6  0000              add [bx+si],al
000034D8  0000              add [bx+si],al
000034DA  0000              add [bx+si],al
000034DC  0000              add [bx+si],al
000034DE  0000              add [bx+si],al
000034E0  0000              add [bx+si],al
000034E2  0000              add [bx+si],al
000034E4  0000              add [bx+si],al
000034E6  0000              add [bx+si],al
000034E8  0000              add [bx+si],al
000034EA  0000              add [bx+si],al
000034EC  0000              add [bx+si],al
000034EE  0000              add [bx+si],al
000034F0  0000              add [bx+si],al
000034F2  0000              add [bx+si],al
000034F4  0000              add [bx+si],al
000034F6  0000              add [bx+si],al
000034F8  0000              add [bx+si],al
000034FA  0000              add [bx+si],al
000034FC  0000              add [bx+si],al
000034FE  0000              add [bx+si],al
00003500  0000              add [bx+si],al
00003502  0000              add [bx+si],al
00003504  0000              add [bx+si],al
00003506  0000              add [bx+si],al
00003508  0000              add [bx+si],al
0000350A  0000              add [bx+si],al
0000350C  0000              add [bx+si],al
0000350E  0000              add [bx+si],al
00003510  0000              add [bx+si],al
00003512  0000              add [bx+si],al
00003514  0000              add [bx+si],al
00003516  0000              add [bx+si],al
00003518  1B00              sbb ax,[bx+si]
0000351A  0000              add [bx+si],al
0000351C  0100              add [bx+si],ax
0000351E  0000              add [bx+si],al
00003520  0200              add al,[bx+si]
00003522  0000              add [bx+si],al
00003524  0000              add [bx+si],al
00003526  0000              add [bx+si],al
00003528  1803              sbb [bp+di],al
0000352A  0000              add [bx+si],al
0000352C  0000              add [bx+si],al
0000352E  0000              add [bx+si],al
00003530  1803              sbb [bp+di],al
00003532  0000              add [bx+si],al
00003534  0000              add [bx+si],al
00003536  0000              add [bx+si],al
00003538  1C00              sbb al,0x0
0000353A  0000              add [bx+si],al
0000353C  0000              add [bx+si],al
0000353E  0000              add [bx+si],al
00003540  0000              add [bx+si],al
00003542  0000              add [bx+si],al
00003544  0000              add [bx+si],al
00003546  0000              add [bx+si],al
00003548  0100              add [bx+si],ax
0000354A  0000              add [bx+si],al
0000354C  0000              add [bx+si],al
0000354E  0000              add [bx+si],al
00003550  0000              add [bx+si],al
00003552  0000              add [bx+si],al
00003554  0000              add [bx+si],al
00003556  0000              add [bx+si],al
00003558  2300              and ax,[bx+si]
0000355A  0000              add [bx+si],al
0000355C  07                pop es
0000355D  0000              add [bx+si],al
0000355F  0002              add [bp+si],al
00003561  0000              add [bx+si],al
00003563  0000              add [bx+si],al
00003565  0000              add [bx+si],al
00003567  0038              add [bx+si],bh
00003569  0300              add ax,[bx+si]
0000356B  0000              add [bx+si],al
0000356D  0000              add [bx+si],al
0000356F  0038              add [bx+si],bh
00003571  0300              add ax,[bx+si]
00003573  0000              add [bx+si],al
00003575  0000              add [bx+si],al
00003577  004000            add [bx+si+0x0],al
0000357A  0000              add [bx+si],al
0000357C  0000              add [bx+si],al
0000357E  0000              add [bx+si],al
00003580  0000              add [bx+si],al
00003582  0000              add [bx+si],al
00003584  0000              add [bx+si],al
00003586  0000              add [bx+si],al
00003588  0800              or [bx+si],al
0000358A  0000              add [bx+si],al
0000358C  0000              add [bx+si],al
0000358E  0000              add [bx+si],al
00003590  0000              add [bx+si],al
00003592  0000              add [bx+si],al
00003594  0000              add [bx+si],al
00003596  0000              add [bx+si],al
00003598  360000            add [ss:bx+si],al
0000359B  0007              add [bx],al
0000359D  0000              add [bx+si],al
0000359F  0002              add [bp+si],al
000035A1  0000              add [bx+si],al
000035A3  0000              add [bx+si],al
000035A5  0000              add [bx+si],al
000035A7  007803            add [bx+si+0x3],bh
000035AA  0000              add [bx+si],al
000035AC  0000              add [bx+si],al
000035AE  0000              add [bx+si],al
000035B0  7803              js 0x35b5
000035B2  0000              add [bx+si],al
000035B4  0000              add [bx+si],al
000035B6  0000              add [bx+si],al
000035B8  2400              and al,0x0
000035BA  0000              add [bx+si],al
000035BC  0000              add [bx+si],al
000035BE  0000              add [bx+si],al
000035C0  0000              add [bx+si],al
000035C2  0000              add [bx+si],al
000035C4  0000              add [bx+si],al
000035C6  0000              add [bx+si],al
000035C8  0400              add al,0x0
000035CA  0000              add [bx+si],al
000035CC  0000              add [bx+si],al
000035CE  0000              add [bx+si],al
000035D0  0000              add [bx+si],al
000035D2  0000              add [bx+si],al
000035D4  0000              add [bx+si],al
000035D6  0000              add [bx+si],al
000035D8  49                dec cx
000035D9  0000              add [bx+si],al
000035DB  0007              add [bx],al
000035DD  0000              add [bx+si],al
000035DF  0002              add [bp+si],al
000035E1  0000              add [bx+si],al
000035E3  0000              add [bx+si],al
000035E5  0000              add [bx+si],al
000035E7  009C0300          add [si+0x3],bl
000035EB  0000              add [bx+si],al
000035ED  0000              add [bx+si],al
000035EF  009C0300          add [si+0x3],bl
000035F3  0000              add [bx+si],al
000035F5  0000              add [bx+si],al
000035F7  0020              add [bx+si],ah
000035F9  0000              add [bx+si],al
000035FB  0000              add [bx+si],al
000035FD  0000              add [bx+si],al
000035FF  0000              add [bx+si],al
00003601  0000              add [bx+si],al
00003603  0000              add [bx+si],al
00003605  0000              add [bx+si],al
00003607  0004              add [si],al
00003609  0000              add [bx+si],al
0000360B  0000              add [bx+si],al
0000360D  0000              add [bx+si],al
0000360F  0000              add [bx+si],al
00003611  0000              add [bx+si],al
00003613  0000              add [bx+si],al
00003615  0000              add [bx+si],al
00003617  005700            add [bx+0x0],dl
0000361A  0000              add [bx+si],al
0000361C  F6FF              idiv bh
0000361E  FF6F02            jmp far [bx+0x2]
00003621  0000              add [bx+si],al
00003623  0000              add [bx+si],al
00003625  0000              add [bx+si],al
00003627  00C0              add al,al
00003629  0300              add ax,[bx+si]
0000362B  0000              add [bx+si],al
0000362D  0000              add [bx+si],al
0000362F  00C0              add al,al
00003631  0300              add ax,[bx+si]
00003633  0000              add [bx+si],al
00003635  0000              add [bx+si],al
00003637  001C              add [si],bl
00003639  0000              add [bx+si],al
0000363B  0000              add [bx+si],al
0000363D  0000              add [bx+si],al
0000363F  00060000          add [0x0],al
00003643  0000              add [bx+si],al
00003645  0000              add [bx+si],al
00003647  0008              add [bx+si],cl
00003649  0000              add [bx+si],al
0000364B  0000              add [bx+si],al
0000364D  0000              add [bx+si],al
0000364F  0000              add [bx+si],al
00003651  0000              add [bx+si],al
00003653  0000              add [bx+si],al
00003655  0000              add [bx+si],al
00003657  006100            add [bx+di+0x0],ah
0000365A  0000              add [bx+si],al
0000365C  0B00              or ax,[bx+si]
0000365E  0000              add [bx+si],al
00003660  0200              add al,[bx+si]
00003662  0000              add [bx+si],al
00003664  0000              add [bx+si],al
00003666  0000              add [bx+si],al
00003668  E003              loopne 0x366d
0000366A  0000              add [bx+si],al
0000366C  0000              add [bx+si],al
0000366E  0000              add [bx+si],al
00003670  E003              loopne 0x3675
00003672  0000              add [bx+si],al
00003674  0000              add [bx+si],al
00003676  0000              add [bx+si],al
00003678  A800              test al,0x0
0000367A  0000              add [bx+si],al
0000367C  0000              add [bx+si],al
0000367E  0000              add [bx+si],al
00003680  07                pop es
00003681  0000              add [bx+si],al
00003683  0001              add [bx+di],al
00003685  0000              add [bx+si],al
00003687  0008              add [bx+si],cl
00003689  0000              add [bx+si],al
0000368B  0000              add [bx+si],al
0000368D  0000              add [bx+si],al
0000368F  0018              add [bx+si],bl
00003691  0000              add [bx+si],al
00003693  0000              add [bx+si],al
00003695  0000              add [bx+si],al
00003697  006900            add [bx+di+0x0],ch
0000369A  0000              add [bx+si],al
0000369C  0300              add ax,[bx+si]
0000369E  0000              add [bx+si],al
000036A0  0200              add al,[bx+si]
000036A2  0000              add [bx+si],al
000036A4  0000              add [bx+si],al
000036A6  0000              add [bx+si],al
000036A8  8804              mov [si],al
000036AA  0000              add [bx+si],al
000036AC  0000              add [bx+si],al
000036AE  0000              add [bx+si],al
000036B0  8804              mov [si],al
000036B2  0000              add [bx+si],al
000036B4  0000              add [bx+si],al
000036B6  0000              add [bx+si],al
000036B8  8F00              pop word [bx+si]
000036BA  0000              add [bx+si],al
000036BC  0000              add [bx+si],al
000036BE  0000              add [bx+si],al
000036C0  0000              add [bx+si],al
000036C2  0000              add [bx+si],al
000036C4  0000              add [bx+si],al
000036C6  0000              add [bx+si],al
000036C8  0100              add [bx+si],ax
000036CA  0000              add [bx+si],al
000036CC  0000              add [bx+si],al
000036CE  0000              add [bx+si],al
000036D0  0000              add [bx+si],al
000036D2  0000              add [bx+si],al
000036D4  0000              add [bx+si],al
000036D6  0000              add [bx+si],al
000036D8  7100              jno 0x36da
000036DA  0000              add [bx+si],al
000036DC  FF                db 0xff
000036DD  FF                db 0xff
000036DE  FF6F02            jmp far [bx+0x2]
000036E1  0000              add [bx+si],al
000036E3  0000              add [bx+si],al
000036E5  0000              add [bx+si],al
000036E7  0018              add [bx+si],bl
000036E9  050000            add ax,0x0
000036EC  0000              add [bx+si],al
000036EE  0000              add [bx+si],al
000036F0  1805              sbb [di],al
000036F2  0000              add [bx+si],al
000036F4  0000              add [bx+si],al
000036F6  0000              add [bx+si],al
000036F8  0E                push cs
000036F9  0000              add [bx+si],al
000036FB  0000              add [bx+si],al
000036FD  0000              add [bx+si],al
000036FF  00060000          add [0x0],al
00003703  0000              add [bx+si],al
00003705  0000              add [bx+si],al
00003707  0002              add [bp+si],al
00003709  0000              add [bx+si],al
0000370B  0000              add [bx+si],al
0000370D  0000              add [bx+si],al
0000370F  0002              add [bp+si],al
00003711  0000              add [bx+si],al
00003713  0000              add [bx+si],al
00003715  0000              add [bx+si],al
00003717  007E00            add [bp+0x0],bh
0000371A  0000              add [bx+si],al
0000371C  FE                db 0xfe
0000371D  FF                db 0xff
0000371E  FF6F02            jmp far [bx+0x2]
00003721  0000              add [bx+si],al
00003723  0000              add [bx+si],al
00003725  0000              add [bx+si],al
00003727  0028              add [bx+si],ch
00003729  050000            add ax,0x0
0000372C  0000              add [bx+si],al
0000372E  0000              add [bx+si],al
00003730  2805              sub [di],al
00003732  0000              add [bx+si],al
00003734  0000              add [bx+si],al
00003736  0000              add [bx+si],al
00003738  3000              xor [bx+si],al
0000373A  0000              add [bx+si],al
0000373C  0000              add [bx+si],al
0000373E  0000              add [bx+si],al
00003740  07                pop es
00003741  0000              add [bx+si],al
00003743  0001              add [bx+di],al
00003745  0000              add [bx+si],al
00003747  0008              add [bx+si],cl
00003749  0000              add [bx+si],al
0000374B  0000              add [bx+si],al
0000374D  0000              add [bx+si],al
0000374F  0000              add [bx+si],al
00003751  0000              add [bx+si],al
00003753  0000              add [bx+si],al
00003755  0000              add [bx+si],al
00003757  008D0000          add [di+0x0],cl
0000375B  0004              add [si],al
0000375D  0000              add [bx+si],al
0000375F  0002              add [bp+si],al
00003761  0000              add [bx+si],al
00003763  0000              add [bx+si],al
00003765  0000              add [bx+si],al
00003767  005805            add [bx+si+0x5],bl
0000376A  0000              add [bx+si],al
0000376C  0000              add [bx+si],al
0000376E  0000              add [bx+si],al
00003770  58                pop ax
00003771  050000            add ax,0x0
00003774  0000              add [bx+si],al
00003776  0000              add [bx+si],al
00003778  C00000            rol byte [bx+si],byte 0x0
0000377B  0000              add [bx+si],al
0000377D  0000              add [bx+si],al
0000377F  00060000          add [0x0],al
00003783  0000              add [bx+si],al
00003785  0000              add [bx+si],al
00003787  0008              add [bx+si],cl
00003789  0000              add [bx+si],al
0000378B  0000              add [bx+si],al
0000378D  0000              add [bx+si],al
0000378F  0018              add [bx+si],bl
00003791  0000              add [bx+si],al
00003793  0000              add [bx+si],al
00003795  0000              add [bx+si],al
00003797  00970000          add [bx+0x0],dl
0000379B  0004              add [si],al
0000379D  0000              add [bx+si],al
0000379F  004200            add [bp+si+0x0],al
000037A2  0000              add [bx+si],al
000037A4  0000              add [bx+si],al
000037A6  0000              add [bx+si],al
000037A8  18060000          sbb [0x0],al
000037AC  0000              add [bx+si],al
000037AE  0000              add [bx+si],al
000037B0  18060000          sbb [0x0],al
000037B4  0000              add [bx+si],al
000037B6  0000              add [bx+si],al
000037B8  1800              sbb [bx+si],al
000037BA  0000              add [bx+si],al
000037BC  0000              add [bx+si],al
000037BE  0000              add [bx+si],al
000037C0  06                push es
000037C1  0000              add [bx+si],al
000037C3  0017              add [bx],dl
000037C5  0000              add [bx+si],al
000037C7  0008              add [bx+si],cl
000037C9  0000              add [bx+si],al
000037CB  0000              add [bx+si],al
000037CD  0000              add [bx+si],al
000037CF  0018              add [bx+si],bl
000037D1  0000              add [bx+si],al
000037D3  0000              add [bx+si],al
000037D5  0000              add [bx+si],al
000037D7  00A10000          add [bx+di+0x0],ah
000037DB  0001              add [bx+di],al
000037DD  0000              add [bx+si],al
000037DF  00060000          add [0x0],al
000037E3  0000              add [bx+si],al
000037E5  0000              add [bx+si],al
000037E7  0000              add [bx+si],al
000037E9  1000              adc [bx+si],al
000037EB  0000              add [bx+si],al
000037ED  0000              add [bx+si],al
000037EF  0000              add [bx+si],al
000037F1  1000              adc [bx+si],al
000037F3  0000              add [bx+si],al
000037F5  0000              add [bx+si],al
000037F7  001B              add [bp+di],bl
000037F9  0000              add [bx+si],al
000037FB  0000              add [bx+si],al
000037FD  0000              add [bx+si],al
000037FF  0000              add [bx+si],al
00003801  0000              add [bx+si],al
00003803  0000              add [bx+si],al
00003805  0000              add [bx+si],al
00003807  0004              add [si],al
00003809  0000              add [bx+si],al
0000380B  0000              add [bx+si],al
0000380D  0000              add [bx+si],al
0000380F  0000              add [bx+si],al
00003811  0000              add [bx+si],al
00003813  0000              add [bx+si],al
00003815  0000              add [bx+si],al
00003817  009C0000          add [si+0x0],bl
0000381B  0001              add [bx+di],al
0000381D  0000              add [bx+si],al
0000381F  00060000          add [0x0],al
00003823  0000              add [bx+si],al
00003825  0000              add [bx+si],al
00003827  0020              add [bx+si],ah
00003829  1000              adc [bx+si],al
0000382B  0000              add [bx+si],al
0000382D  0000              add [bx+si],al
0000382F  0020              add [bx+si],ah
00003831  1000              adc [bx+si],al
00003833  0000              add [bx+si],al
00003835  0000              add [bx+si],al
00003837  0020              add [bx+si],ah
00003839  0000              add [bx+si],al
0000383B  0000              add [bx+si],al
0000383D  0000              add [bx+si],al
0000383F  0000              add [bx+si],al
00003841  0000              add [bx+si],al
00003843  0000              add [bx+si],al
00003845  0000              add [bx+si],al
00003847  0010              add [bx+si],dl
00003849  0000              add [bx+si],al
0000384B  0000              add [bx+si],al
0000384D  0000              add [bx+si],al
0000384F  0010              add [bx+si],dl
00003851  0000              add [bx+si],al
00003853  0000              add [bx+si],al
00003855  0000              add [bx+si],al
00003857  00A70000          add [bx+0x0],ah
0000385B  0001              add [bx+di],al
0000385D  0000              add [bx+si],al
0000385F  00060000          add [0x0],al
00003863  0000              add [bx+si],al
00003865  0000              add [bx+si],al
00003867  004010            add [bx+si+0x10],al
0000386A  0000              add [bx+si],al
0000386C  0000              add [bx+si],al
0000386E  0000              add [bx+si],al
00003870  40                inc ax
00003871  1000              adc [bx+si],al
00003873  0000              add [bx+si],al
00003875  0000              add [bx+si],al
00003877  0018              add [bx+si],bl
00003879  0100              add [bx+si],ax
0000387B  0000              add [bx+si],al
0000387D  0000              add [bx+si],al
0000387F  0000              add [bx+si],al
00003881  0000              add [bx+si],al
00003883  0000              add [bx+si],al
00003885  0000              add [bx+si],al
00003887  0010              add [bx+si],dl
00003889  0000              add [bx+si],al
0000388B  0000              add [bx+si],al
0000388D  0000              add [bx+si],al
0000388F  0000              add [bx+si],al
00003891  0000              add [bx+si],al
00003893  0000              add [bx+si],al
00003895  0000              add [bx+si],al
00003897  00AD0000          add [di+0x0],ch
0000389B  0001              add [bx+di],al
0000389D  0000              add [bx+si],al
0000389F  00060000          add [0x0],al
000038A3  0000              add [bx+si],al
000038A5  0000              add [bx+si],al
000038A7  005811            add [bx+si+0x11],bl
000038AA  0000              add [bx+si],al
000038AC  0000              add [bx+si],al
000038AE  0000              add [bx+si],al
000038B0  58                pop ax
000038B1  1100              adc [bx+si],ax
000038B3  0000              add [bx+si],al
000038B5  0000              add [bx+si],al
000038B7  000D              add [di],cl
000038B9  0000              add [bx+si],al
000038BB  0000              add [bx+si],al
000038BD  0000              add [bx+si],al
000038BF  0000              add [bx+si],al
000038C1  0000              add [bx+si],al
000038C3  0000              add [bx+si],al
000038C5  0000              add [bx+si],al
000038C7  0004              add [si],al
000038C9  0000              add [bx+si],al
000038CB  0000              add [bx+si],al
000038CD  0000              add [bx+si],al
000038CF  0000              add [bx+si],al
000038D1  0000              add [bx+si],al
000038D3  0000              add [bx+si],al
000038D5  0000              add [bx+si],al
000038D7  00B30000          add [bp+di+0x0],dh
000038DB  0001              add [bx+di],al
000038DD  0000              add [bx+si],al
000038DF  0002              add [bp+si],al
000038E1  0000              add [bx+si],al
000038E3  0000              add [bx+si],al
000038E5  0000              add [bx+si],al
000038E7  0000              add [bx+si],al
000038E9  2000              and [bx+si],al
000038EB  0000              add [bx+si],al
000038ED  0000              add [bx+si],al
000038EF  0000              add [bx+si],al
000038F1  2000              and [bx+si],al
000038F3  0000              add [bx+si],al
000038F5  0000              add [bx+si],al
000038F7  0018              add [bx+si],bl
000038F9  0000              add [bx+si],al
000038FB  0000              add [bx+si],al
000038FD  0000              add [bx+si],al
000038FF  0000              add [bx+si],al
00003901  0000              add [bx+si],al
00003903  0000              add [bx+si],al
00003905  0000              add [bx+si],al
00003907  0004              add [si],al
00003909  0000              add [bx+si],al
0000390B  0000              add [bx+si],al
0000390D  0000              add [bx+si],al
0000390F  0000              add [bx+si],al
00003911  0000              add [bx+si],al
00003913  0000              add [bx+si],al
00003915  0000              add [bx+si],al
00003917  00BB0000          add [bp+di+0x0],bh
0000391B  0001              add [bx+di],al
0000391D  0000              add [bx+si],al
0000391F  0002              add [bp+si],al
00003921  0000              add [bx+si],al
00003923  0000              add [bx+si],al
00003925  0000              add [bx+si],al
00003927  0018              add [bx+si],bl
00003929  2000              and [bx+si],al
0000392B  0000              add [bx+si],al
0000392D  0000              add [bx+si],al
0000392F  0018              add [bx+si],bl
00003931  2000              and [bx+si],al
00003933  0000              add [bx+si],al
00003935  0000              add [bx+si],al
00003937  0024              add [si],ah
00003939  0000              add [bx+si],al
0000393B  0000              add [bx+si],al
0000393D  0000              add [bx+si],al
0000393F  0000              add [bx+si],al
00003941  0000              add [bx+si],al
00003943  0000              add [bx+si],al
00003945  0000              add [bx+si],al
00003947  0004              add [si],al
00003949  0000              add [bx+si],al
0000394B  0000              add [bx+si],al
0000394D  0000              add [bx+si],al
0000394F  0000              add [bx+si],al
00003951  0000              add [bx+si],al
00003953  0000              add [bx+si],al
00003955  0000              add [bx+si],al
00003957  00C9              add cl,cl
00003959  0000              add [bx+si],al
0000395B  0001              add [bx+di],al
0000395D  0000              add [bx+si],al
0000395F  0002              add [bp+si],al
00003961  0000              add [bx+si],al
00003963  0000              add [bx+si],al
00003965  0000              add [bx+si],al
00003967  004020            add [bx+si+0x20],al
0000396A  0000              add [bx+si],al
0000396C  0000              add [bx+si],al
0000396E  0000              add [bx+si],al
00003970  40                inc ax
00003971  2000              and [bx+si],al
00003973  0000              add [bx+si],al
00003975  0000              add [bx+si],al
00003977  007C00            add [si+0x0],bh
0000397A  0000              add [bx+si],al
0000397C  0000              add [bx+si],al
0000397E  0000              add [bx+si],al
00003980  0000              add [bx+si],al
00003982  0000              add [bx+si],al
00003984  0000              add [bx+si],al
00003986  0000              add [bx+si],al
00003988  0800              or [bx+si],al
0000398A  0000              add [bx+si],al
0000398C  0000              add [bx+si],al
0000398E  0000              add [bx+si],al
00003990  0000              add [bx+si],al
00003992  0000              add [bx+si],al
00003994  0000              add [bx+si],al
00003996  0000              add [bx+si],al
00003998  D300              rol word [bx+si],cl
0000399A  0000              add [bx+si],al
0000399C  0E                push cs
0000399D  0000              add [bx+si],al
0000399F  0003              add [bp+di],al
000039A1  0000              add [bx+si],al
000039A3  0000              add [bx+si],al
000039A5  0000              add [bx+si],al
000039A7  00D0              add al,dl
000039A9  3D0000            cmp ax,0x0
000039AC  0000              add [bx+si],al
000039AE  0000              add [bx+si],al
000039B0  D02D              shr byte [di],1
000039B2  0000              add [bx+si],al
000039B4  0000              add [bx+si],al
000039B6  0000              add [bx+si],al
000039B8  0800              or [bx+si],al
000039BA  0000              add [bx+si],al
000039BC  0000              add [bx+si],al
000039BE  0000              add [bx+si],al
000039C0  0000              add [bx+si],al
000039C2  0000              add [bx+si],al
000039C4  0000              add [bx+si],al
000039C6  0000              add [bx+si],al
000039C8  0800              or [bx+si],al
000039CA  0000              add [bx+si],al
000039CC  0000              add [bx+si],al
000039CE  0000              add [bx+si],al
000039D0  0800              or [bx+si],al
000039D2  0000              add [bx+si],al
000039D4  0000              add [bx+si],al
000039D6  0000              add [bx+si],al
000039D8  DF00              fild word [bx+si]
000039DA  0000              add [bx+si],al
000039DC  0F0000            sldt [bx+si]
000039DF  0003              add [bp+di],al
000039E1  0000              add [bx+si],al
000039E3  0000              add [bx+si],al
000039E5  0000              add [bx+si],al
000039E7  00D8              add al,bl
000039E9  3D0000            cmp ax,0x0
000039EC  0000              add [bx+si],al
000039EE  0000              add [bx+si],al
000039F0  D82D              fsubr dword [di]
000039F2  0000              add [bx+si],al
000039F4  0000              add [bx+si],al
000039F6  0000              add [bx+si],al
000039F8  0800              or [bx+si],al
000039FA  0000              add [bx+si],al
000039FC  0000              add [bx+si],al
000039FE  0000              add [bx+si],al
00003A00  0000              add [bx+si],al
00003A02  0000              add [bx+si],al
00003A04  0000              add [bx+si],al
00003A06  0000              add [bx+si],al
00003A08  0800              or [bx+si],al
00003A0A  0000              add [bx+si],al
00003A0C  0000              add [bx+si],al
00003A0E  0000              add [bx+si],al
00003A10  0800              or [bx+si],al
00003A12  0000              add [bx+si],al
00003A14  0000              add [bx+si],al
00003A16  0000              add [bx+si],al
00003A18  EB00              jmp short 0x3a1a
00003A1A  0000              add [bx+si],al
00003A1C  06                push es
00003A1D  0000              add [bx+si],al
00003A1F  0003              add [bp+di],al
00003A21  0000              add [bx+si],al
00003A23  0000              add [bx+si],al
00003A25  0000              add [bx+si],al
00003A27  00E0              add al,ah
00003A29  3D0000            cmp ax,0x0
00003A2C  0000              add [bx+si],al
00003A2E  0000              add [bx+si],al
00003A30  E02D              loopne 0x3a5f
00003A32  0000              add [bx+si],al
00003A34  0000              add [bx+si],al
00003A36  0000              add [bx+si],al
00003A38  E001              loopne 0x3a3b
00003A3A  0000              add [bx+si],al
00003A3C  0000              add [bx+si],al
00003A3E  0000              add [bx+si],al
00003A40  07                pop es
00003A41  0000              add [bx+si],al
00003A43  0000              add [bx+si],al
00003A45  0000              add [bx+si],al
00003A47  0008              add [bx+si],cl
00003A49  0000              add [bx+si],al
00003A4B  0000              add [bx+si],al
00003A4D  0000              add [bx+si],al
00003A4F  0010              add [bx+si],dl
00003A51  0000              add [bx+si],al
00003A53  0000              add [bx+si],al
00003A55  0000              add [bx+si],al
00003A57  00F4              add ah,dh
00003A59  0000              add [bx+si],al
00003A5B  0001              add [bx+di],al
00003A5D  0000              add [bx+si],al
00003A5F  0003              add [bp+di],al
00003A61  0000              add [bx+si],al
00003A63  0000              add [bx+si],al
00003A65  0000              add [bx+si],al
00003A67  00C0              add al,al
00003A69  3F                aas
00003A6A  0000              add [bx+si],al
00003A6C  0000              add [bx+si],al
00003A6E  0000              add [bx+si],al
00003A70  C02F00            shr byte [bx],byte 0x0
00003A73  0000              add [bx+si],al
00003A75  0000              add [bx+si],al
00003A77  0028              add [bx+si],ch
00003A79  0000              add [bx+si],al
00003A7B  0000              add [bx+si],al
00003A7D  0000              add [bx+si],al
00003A7F  0000              add [bx+si],al
00003A81  0000              add [bx+si],al
00003A83  0000              add [bx+si],al
00003A85  0000              add [bx+si],al
00003A87  0008              add [bx+si],cl
00003A89  0000              add [bx+si],al
00003A8B  0000              add [bx+si],al
00003A8D  0000              add [bx+si],al
00003A8F  0008              add [bx+si],cl
00003A91  0000              add [bx+si],al
00003A93  0000              add [bx+si],al
00003A95  0000              add [bx+si],al
00003A97  00F9              add cl,bh
00003A99  0000              add [bx+si],al
00003A9B  0001              add [bx+di],al
00003A9D  0000              add [bx+si],al
00003A9F  0003              add [bp+di],al
00003AA1  0000              add [bx+si],al
00003AA3  0000              add [bx+si],al
00003AA5  0000              add [bx+si],al
00003AA7  00E8              add al,ch
00003AA9  3F                aas
00003AAA  0000              add [bx+si],al
00003AAC  0000              add [bx+si],al
00003AAE  0000              add [bx+si],al
00003AB0  E82F00            call 0x3ae2
00003AB3  0000              add [bx+si],al
00003AB5  0000              add [bx+si],al
00003AB7  0020              add [bx+si],ah
00003AB9  0000              add [bx+si],al
00003ABB  0000              add [bx+si],al
00003ABD  0000              add [bx+si],al
00003ABF  0000              add [bx+si],al
00003AC1  0000              add [bx+si],al
00003AC3  0000              add [bx+si],al
00003AC5  0000              add [bx+si],al
00003AC7  0008              add [bx+si],cl
00003AC9  0000              add [bx+si],al
00003ACB  0000              add [bx+si],al
00003ACD  0000              add [bx+si],al
00003ACF  0008              add [bx+si],cl
00003AD1  0000              add [bx+si],al
00003AD3  0000              add [bx+si],al
00003AD5  0000              add [bx+si],al
00003AD7  0002              add [bp+si],al
00003AD9  0100              add [bx+si],ax
00003ADB  0001              add [bx+di],al
00003ADD  0000              add [bx+si],al
00003ADF  0003              add [bp+di],al
00003AE1  0000              add [bx+si],al
00003AE3  0000              add [bx+si],al
00003AE5  0000              add [bx+si],al
00003AE7  0008              add [bx+si],cl
00003AE9  40                inc ax
00003AEA  0000              add [bx+si],al
00003AEC  0000              add [bx+si],al
00003AEE  0000              add [bx+si],al
00003AF0  0830              or [bx+si],dh
00003AF2  0000              add [bx+si],al
00003AF4  0000              add [bx+si],al
00003AF6  0000              add [bx+si],al
00003AF8  1000              adc [bx+si],al
00003AFA  0000              add [bx+si],al
00003AFC  0000              add [bx+si],al
00003AFE  0000              add [bx+si],al
00003B00  0000              add [bx+si],al
00003B02  0000              add [bx+si],al
00003B04  0000              add [bx+si],al
00003B06  0000              add [bx+si],al
00003B08  0800              or [bx+si],al
00003B0A  0000              add [bx+si],al
00003B0C  0000              add [bx+si],al
00003B0E  0000              add [bx+si],al
00003B10  0000              add [bx+si],al
00003B12  0000              add [bx+si],al
00003B14  0000              add [bx+si],al
00003B16  0000              add [bx+si],al
00003B18  0801              or [bx+di],al
00003B1A  0000              add [bx+si],al
00003B1C  0800              or [bx+si],al
00003B1E  0000              add [bx+si],al
00003B20  0300              add ax,[bx+si]
00003B22  0000              add [bx+si],al
00003B24  0000              add [bx+si],al
00003B26  0000              add [bx+si],al
00003B28  184000            sbb [bx+si+0x0],al
00003B2B  0000              add [bx+si],al
00003B2D  0000              add [bx+si],al
00003B2F  0018              add [bx+si],bl
00003B31  3000              xor [bx+si],al
00003B33  0000              add [bx+si],al
00003B35  0000              add [bx+si],al
00003B37  0008              add [bx+si],cl
00003B39  0000              add [bx+si],al
00003B3B  0000              add [bx+si],al
00003B3D  0000              add [bx+si],al
00003B3F  0000              add [bx+si],al
00003B41  0000              add [bx+si],al
00003B43  0000              add [bx+si],al
00003B45  0000              add [bx+si],al
00003B47  0001              add [bx+di],al
00003B49  0000              add [bx+si],al
00003B4B  0000              add [bx+si],al
00003B4D  0000              add [bx+si],al
00003B4F  0000              add [bx+si],al
00003B51  0000              add [bx+si],al
00003B53  0000              add [bx+si],al
00003B55  0000              add [bx+si],al
00003B57  000D              add [di],cl
00003B59  0100              add [bx+si],ax
00003B5B  0001              add [bx+di],al
00003B5D  0000              add [bx+si],al
00003B5F  0030              add [bx+si],dh
00003B61  0000              add [bx+si],al
00003B63  0000              add [bx+si],al
00003B65  0000              add [bx+si],al
00003B67  0000              add [bx+si],al
00003B69  0000              add [bx+si],al
00003B6B  0000              add [bx+si],al
00003B6D  0000              add [bx+si],al
00003B6F  0018              add [bx+si],bl
00003B71  3000              xor [bx+si],al
00003B73  0000              add [bx+si],al
00003B75  0000              add [bx+si],al
00003B77  00360000          add [0x0],dh
00003B7B  0000              add [bx+si],al
00003B7D  0000              add [bx+si],al
00003B7F  0000              add [bx+si],al
00003B81  0000              add [bx+si],al
00003B83  0000              add [bx+si],al
00003B85  0000              add [bx+si],al
00003B87  0001              add [bx+di],al
00003B89  0000              add [bx+si],al
00003B8B  0000              add [bx+si],al
00003B8D  0000              add [bx+si],al
00003B8F  0001              add [bx+di],al
00003B91  0000              add [bx+si],al
00003B93  0000              add [bx+si],al
00003B95  0000              add [bx+si],al
00003B97  0001              add [bx+di],al
00003B99  0000              add [bx+si],al
00003B9B  0002              add [bp+si],al
00003B9D  0000              add [bx+si],al
00003B9F  0000              add [bx+si],al
00003BA1  0000              add [bx+si],al
00003BA3  0000              add [bx+si],al
00003BA5  0000              add [bx+si],al
00003BA7  0000              add [bx+si],al
00003BA9  0000              add [bx+si],al
00003BAB  0000              add [bx+si],al
00003BAD  0000              add [bx+si],al
00003BAF  005030            add [bx+si+0x30],dl
00003BB2  0000              add [bx+si],al
00003BB4  0000              add [bx+si],al
00003BB6  0000              add [bx+si],al
00003BB8  40                inc ax
00003BB9  0200              add al,[bx+si]
00003BBB  0000              add [bx+si],al
00003BBD  0000              add [bx+si],al
00003BBF  001C              add [si],bl
00003BC1  0000              add [bx+si],al
00003BC3  00060000          add [0x0],al
00003BC7  0008              add [bx+si],cl
00003BC9  0000              add [bx+si],al
00003BCB  0000              add [bx+si],al
00003BCD  0000              add [bx+si],al
00003BCF  0018              add [bx+si],bl
00003BD1  0000              add [bx+si],al
00003BD3  0000              add [bx+si],al
00003BD5  0000              add [bx+si],al
00003BD7  0009              add [bx+di],cl
00003BD9  0000              add [bx+si],al
00003BDB  0003              add [bp+di],al
00003BDD  0000              add [bx+si],al
00003BDF  0000              add [bx+si],al
00003BE1  0000              add [bx+si],al
00003BE3  0000              add [bx+si],al
00003BE5  0000              add [bx+si],al
00003BE7  0000              add [bx+si],al
00003BE9  0000              add [bx+si],al
00003BEB  0000              add [bx+si],al
00003BED  0000              add [bx+si],al
00003BEF  00903200          add [bx+si+0x32],dl
00003BF3  0000              add [bx+si],al
00003BF5  0000              add [bx+si],al
00003BF7  002E0100          add [0x1],ch
00003BFB  0000              add [bx+si],al
00003BFD  0000              add [bx+si],al
00003BFF  0000              add [bx+si],al
00003C01  0000              add [bx+si],al
00003C03  0000              add [bx+si],al
00003C05  0000              add [bx+si],al
00003C07  0001              add [bx+di],al
00003C09  0000              add [bx+si],al
00003C0B  0000              add [bx+si],al
00003C0D  0000              add [bx+si],al
00003C0F  0000              add [bx+si],al
00003C11  0000              add [bx+si],al
00003C13  0000              add [bx+si],al
00003C15  0000              add [bx+si],al
00003C17  0011              add [bx+di],dl
00003C19  0000              add [bx+si],al
00003C1B  0003              add [bp+di],al
00003C1D  0000              add [bx+si],al
00003C1F  0000              add [bx+si],al
00003C21  0000              add [bx+si],al
00003C23  0000              add [bx+si],al
00003C25  0000              add [bx+si],al
00003C27  0000              add [bx+si],al
00003C29  0000              add [bx+si],al
00003C2B  0000              add [bx+si],al
00003C2D  0000              add [bx+si],al
00003C2F  00BE3300          add [bp+0x33],bh
00003C33  0000              add [bx+si],al
00003C35  0000              add [bx+si],al
00003C37  00160100          add [0x1],dl
00003C3B  0000              add [bx+si],al
00003C3D  0000              add [bx+si],al
00003C3F  0000              add [bx+si],al
00003C41  0000              add [bx+si],al
00003C43  0000              add [bx+si],al
00003C45  0000              add [bx+si],al
00003C47  0001              add [bx+di],al
00003C49  0000              add [bx+si],al
00003C4B  0000              add [bx+si],al
00003C4D  0000              add [bx+si],al
00003C4F  0000              add [bx+si],al
00003C51  0000              add [bx+si],al
00003C53  0000              add [bx+si],al
00003C55  0000              add [bx+si],al
00003C57  00                db 0x00
